(lp1
(lp2
S'head_fk_anim'
p3
a(lp4
(lp5
Na(lp6
(lp7
VtranslateX
p8
a(lp9
(lp10
F0
aF0
a(lp11
Vauto
p12
aVauto
p13
aF0
aF0
aF0
aF0
aaaaa(lp14
VtranslateY
p15
a(lp16
(lp17
F0
aF0
a(lp18
Vauto
p19
aVauto
p20
aF0
aF0
aF0
aF0
aaaaa(lp21
VtranslateZ
p22
a(lp23
(lp24
F0
aF0
a(lp25
Vauto
p26
aVauto
p27
aF0
aF0
aF0
aF0
aaaaa(lp28
VrotateX
p29
a(lp30
(lp31
F0
aF0
a(lp32
Vauto
p33
aVauto
p34
aF0
aF0
aF0
aF0
aaaaa(lp35
VrotateY
p36
a(lp37
(lp38
F0
aF0
a(lp39
Vauto
p40
aVauto
p41
aF0
aF0
aF0
aF0
aaaaa(lp42
VrotateZ
p43
a(lp44
(lp45
F0
aF0
a(lp46
Vauto
p47
aVauto
p48
aF0
aF0
aF0
aF0
aaaaa(lp49
VscaleX
p50
a(lp51
(lp52
F0
aF1
a(lp53
Vauto
p54
aVauto
p55
aF0
aF0
aF0
aF0
aaaaa(lp56
VscaleY
p57
a(lp58
(lp59
F0
aF1
a(lp60
Vauto
p61
aVauto
p62
aF0
aF0
aF0
aF0
aaaaa(lp63
VscaleZ
p64
a(lp65
(lp66
F0
aF1
a(lp67
Vauto
p68
aVauto
p69
aF0
aF0
aF0
aF0
aaaaa(lp70
VfkOrientation
p71
a(lp72
(lp73
F0
aF0
a(lp74
Vspline
p75
aVstep
p76
aF0
aF0
aF1
aF0
aaaaaaaaa(lp77
S'neck_01_fk_anim'
p78
a(lp79
(lp80
Na(lp81
(lp82
VrotateX
p83
a(lp84
(lp85
F0
aF0
a(lp86
Vauto
p87
aVauto
p88
aF0
aF0
aF1
aF1
aaa(lp89
F21
aF12.58009734591983
a(lp90
Vauto
p91
aVauto
p92
aF0
aF0
aF1
aF1
aaa(lp93
F54
aF12.580097345919841
a(lp94
Vauto
p95
aVauto
p96
aF0
aF0
aF1
aF1
aaa(lp97
F63
aF12.580097345919835
a(lp98
Vauto
p99
aVauto
p100
aF0
aF0
aF1
aF1
aaa(lp101
F85
aF12.580097345919841
a(lp102
Vauto
p103
aVauto
p104
aF0
aF0
aF1
aF1
aaa(lp105
F101
aF12.580097345919841
a(lp106
Vauto
p107
aVauto
p108
aF0
aF0
aF1
aF1
aaa(lp109
F110
aF-1.2481010936512345
a(lp110
Vauto
p111
aVauto
p112
aF0
aF0
aF1
aF1
aaa(lp113
F127
aF0
a(lp114
Vfixed
p115
aVfixed
p116
aF0
aF0
aF1
aF1
aaaaa(lp117
VrotateY
p118
a(lp119
(lp120
F0
aF0.0022079866765864179
a(lp121
Vauto
p122
aVauto
p123
aF0
aF0
aF1
aF1
aaa(lp124
F10
aF0.18926562289941523
a(lp125
Vauto
p126
aVauto
p127
aF0
aF0
aF1
aF1
aaa(lp128
F21
aF0.031726508269136852
a(lp129
Vauto
p130
aVauto
p131
aF0
aF0
aF1
aF1
aaa(lp132
F54
aF0.031726508269136929
a(lp133
Vauto
p134
aVauto
p135
aF0
aF0
aF1
aF1
aaa(lp136
F63
aF0.031726508269137421
a(lp137
Vauto
p138
aVauto
p139
aF0
aF0
aF1
aF1
aaa(lp140
F85
aF0.03172650826913713
a(lp141
Vauto
p142
aVauto
p143
aF0
aF0
aF1
aF1
aaa(lp144
F101
aF0.03172650826913713
a(lp145
Vauto
p146
aVauto
p147
aF0
aF0
aF1
aF1
aaa(lp148
F110
aF-1.0154969005599201
a(lp149
Vauto
p150
aVauto
p151
aF0
aF0
aF1
aF1
aaa(lp152
F127
aF0.0022079866765864179
a(lp153
Vfixed
p154
aVfixed
p155
aF0.16480970507752421
aF0.16480972981836675
aF1
aF1
aaaaa(lp156
VrotateZ
p157
a(lp158
(lp159
F0
aF1.3654389603866046
a(lp160
Vauto
p161
aVauto
p162
aF0
aF0
aF1
aF1
aaa(lp163
F10
aF-8.0587275383285171
a(lp164
Vauto
p165
aVauto
p166
aF0
aF0
aF1
aF1
aaa(lp167
F21
aF-1.9205045961837335
a(lp168
Vauto
p169
aVauto
p170
aF15.202195231509831
aF15.202195231509835
aF1
aF1
aaa(lp171
F54
aF3.8976180167223045
a(lp172
Vauto
p173
aVauto
p174
aF15.596451313889078
aF15.596451313889078
aF1
aF1
aaa(lp175
F63
aF9.8033019097564598
a(lp176
Vauto
p177
aVauto
p178
aF0
aF0
aF1
aF1
aaa(lp179
F85
aF4.3695852186758319
a(lp180
Vauto
p181
aVauto
p182
aF0
aF0
aF1
aF1
aaa(lp183
F101
aF4.3695852186758319
a(lp184
Vauto
p185
aVauto
p186
aF0
aF0
aF1
aF1
aaa(lp187
F110
aF4.2502868105433063
a(lp188
Vauto
p189
aVauto
p190
aF-2.2772319316602263
aF-2.2772319316602263
aF1
aF1
aaa(lp191
F127
aF1.3654389603866046
a(lp192
Vfixed
p193
aVfixed
p194
aF0
aF0
aF1
aF1
aaaaaaaaa(lp195
g79
aa(lp196
g79
aa(lp197
S'spine_01_anim'
p198
a(lp199
(lp200
Na(lp201
aaaa(lp202
S'spine_02_anim'
p203
a(lp204
(lp205
Na(lp206
aaaa(lp207
S'spine_03_anim'
p208
a(lp209
(lp210
Na(lp211
aaaa(lp212
g209
aa(lp213
g209
aa(lp214
S'mid_ik_anim'
p215
a(lp216
(lp217
Na(lp218
(lp219
VtranslateX
p220
a(lp221
(lp222
F0
aF0
a(lp223
Vauto
p224
aVauto
p225
aF0
aF0
aF0
aF0
aaaaa(lp226
VtranslateY
p227
a(lp228
(lp229
F0
aF0
a(lp230
Vauto
p231
aVauto
p232
aF0
aF0
aF0
aF0
aaaaa(lp233
VtranslateZ
p234
a(lp235
(lp236
F0
aF0
a(lp237
Vauto
p238
aVauto
p239
aF0
aF0
aF0
aF0
aaaaa(lp240
VrotateX
p241
a(lp242
(lp243
F0
aF0
a(lp244
Vauto
p245
aVauto
p246
aF0
aF0
aF0
aF0
aaaaa(lp247
VrotateY
p248
a(lp249
(lp250
F0
aF0
a(lp251
Vauto
p252
aVauto
p253
aF0
aF0
aF0
aF0
aaaaa(lp254
VrotateZ
p255
a(lp256
(lp257
F0
aF0
a(lp258
Vauto
p259
aVauto
p260
aF0
aF0
aF0
aF0
aaaaaaaaa(lp261
S'chest_ik_anim'
p262
a(lp263
(lp264
Na(lp265
(lp266
VrotateX
p267
a(lp268
(lp269
F0
aF0
a(lp270
Vauto
p271
aVauto
p272
aF0
aF0
aF1
aF1
aaa(lp273
F96
aF0
a(lp274
Vfixed
p275
aVfixed
p276
aF0
aF0
aF1
aF1
aaa(lp277
F110
aF-7.5766135459071684
a(lp278
Vauto
p279
aVauto
p280
aF0
aF0
aF1
aF1
aaa(lp281
F136
aF0
a(lp282
Vfixed
p283
aVfixed
p284
aF0
aF0
aF1
aF1
aaaaa(lp285
VrotateY
p286
a(lp287
(lp288
F0
aF0
a(lp289
Vfixed
p290
aVfixed
p291
aF-6.9493065901412736
aF-6.9493054996128025
aF1
aF1
aaa(lp292
F27
aF-1.4578606885007848
a(lp293
Vauto
p294
aVauto
p295
aF0
aF0
aF1
aF1
aaa(lp296
F54
aF-1.4578606885007828
a(lp297
Vauto
p298
aVauto
p299
aF0
aF0
aF1
aF1
aaa(lp300
F62
aF-1.4578606885007828
a(lp301
Vauto
p302
aVauto
p303
aF0
aF0
aF1
aF1
aaa(lp304
F96
aF0
a(lp305
Vauto
p306
aVauto
p307
aF0
aF0
aF1
aF1
aaa(lp308
F110
aF-4.4338102698749262
a(lp309
Vauto
p310
aVauto
p311
aF0
aF0
aF1
aF1
aaa(lp312
F136
aF0
a(lp313
Vfixed
p314
aVfixed
p315
aF0.0013380911580292126
aF0.0013389441858443977
aF1
aF1
aaaaa(lp316
VrotateZ
p317
a(lp318
(lp319
F0
aF0
a(lp320
Vfixed
p321
aVfixed
p322
aF22.236383293801122
aF22.236384056847321
aF1
aF1
aaa(lp323
F27
aF9.4521473640212985
a(lp324
Vauto
p325
aVauto
p326
aF15.269704390917951
aF15.269704390917951
aF1
aF1
aaa(lp327
F54
aF14.742042748767695
a(lp328
Vauto
p329
aVauto
p330
aF11.523468685066039
aF11.523468685066037
aF1
aF1
aaa(lp331
F62
aF16.587908625719145
a(lp332
Vfixed
p333
aVfixed
p334
aF9.2834214918424571
aF9.2834215496208508
aF1
aF1
aaa(lp335
F96
aF0
a(lp336
Vauto
p337
aVauto
p338
aF-20.025822497109882
aF-20.025822497109882
aF1
aF1
aaa(lp339
F110
aF-1.700909960944577
a(lp340
Vauto
p341
aVauto
p342
aF0
aF0
aF1
aF1
aaa(lp343
F136
aF0
a(lp344
Vfixed
p345
aVfixed
p346
aF-1.0400967603143128
aF-1.040101471656101
aF1
aF1
aaaaaaaaa(lp347
S'body_anim'
p348
a(lp349
(lp350
Na(lp351
(lp352
VtranslateX
p353
a(lp354
(lp355
F0
aF0
a(lp356
Vauto
p357
aVauto
p358
aF0
aF0
aF1
aF1
aaa(lp359
F96
aF0
a(lp360
Vauto
p361
aVauto
p362
aF0
aF0
aF1
aF1
aaa(lp363
F110
aF0
a(lp364
Vauto
p365
aVauto
p366
aF0
aF0
aF1
aF1
aaa(lp367
F136
aF0
a(lp368
Vfixed
p369
aVfixed
p370
aF0
aF0
aF1
aF1
aaaaa(lp371
VtranslateY
p372
a(lp373
(lp374
F0
aF0
a(lp375
Vauto
p376
aVauto
p377
aF0
aF0
aF1
aF1
aaa(lp378
F96
aF0
a(lp379
Vauto
p380
aVauto
p381
aF0
aF0
aF1
aF1
aaa(lp382
F110
aF0
a(lp383
Vauto
p384
aVauto
p385
aF0
aF0
aF1
aF1
aaa(lp386
F136
aF0
a(lp387
Vfixed
p388
aVfixed
p389
aF0
aF0
aF1
aF1
aaaaa(lp390
VtranslateZ
p391
a(lp392
(lp393
F0
aF0
a(lp394
Vauto
p395
aVauto
p396
aF0
aF0
aF1
aF1
aaa(lp397
F96
aF0
a(lp398
Vauto
p399
aVauto
p400
aF0
aF0
aF1
aF1
aaa(lp401
F110
aF0
a(lp402
Vauto
p403
aVauto
p404
aF0
aF0
aF1
aF1
aaa(lp405
F136
aF0
a(lp406
Vfixed
p407
aVfixed
p408
aF0
aF0
aF1
aF1
aaaaa(lp409
VrotateX
p410
a(lp411
(lp412
F0
aF0
a(lp413
Vauto
p414
aVauto
p415
aF0
aF0
aF1
aF1
aaa(lp416
F96
aF0
a(lp417
Vauto
p418
aVauto
p419
aF0
aF0
aF1
aF1
aaa(lp420
F110
aF-3.5371332931875528
a(lp421
Vauto
p422
aVauto
p423
aF0
aF0
aF1
aF1
aaa(lp424
F136
aF0
a(lp425
Vfixed
p426
aVfixed
p427
aF0
aF0
aF1
aF1
aaaaa(lp428
VrotateY
p429
a(lp430
(lp431
F0
aF0
a(lp432
Vauto
p433
aVauto
p434
aF0
aF0
aF1
aF1
aaa(lp435
F96
aF0
a(lp436
Vauto
p437
aVauto
p438
aF0
aF0
aF1
aF1
aaa(lp439
F110
aF-0.86959555599311555
a(lp440
Vauto
p441
aVauto
p442
aF0
aF0
aF1
aF1
aaa(lp443
F136
aF0
a(lp444
Vfixed
p445
aVfixed
p446
aF0
aF0
aF1
aF1
aaaaa(lp447
VrotateZ
p448
a(lp449
(lp450
F0
aF0
a(lp451
Vauto
p452
aVauto
p453
aF0
aF0
aF1
aF1
aaa(lp454
F27
aF0.55271639754001034
a(lp455
Vfixed
p456
aVfixed
p457
aF2.2144160729591391
aF2.2144157328183858
aF1
aF1
aaa(lp458
F54
aF4.8013317684057677
a(lp459
Vfixed
p460
aVfixed
p461
aF16.541980330264266
aF16.541982199833384
aF1
aF1
aaa(lp462
F62
aF8.9883119721799769
a(lp463
Vfixed
p464
aVfixed
p465
aF2.6392577393967516
aF2.6392575262248368
aF1
aF1
aaa(lp466
F96
aF0
a(lp467
Vauto
p468
aVauto
p469
aF-0.776770642367273
aF-0.776770642367273
aF1
aF1
aaa(lp470
F110
aF-0.063270833452609226
a(lp471
Vauto
p472
aVauto
p473
aF0
aF0
aF1
aF1
aaa(lp474
F136
aF0
a(lp475
Vfixed
p476
aVfixed
p477
aF0
aF0
aF1
aF1
aaaaaaaaa(lp478
S'hip_anim'
p479
a(lp480
(lp481
Na(lp482
(lp483
VtranslateX
p484
a(lp485
(lp486
F0
aF0
a(lp487
Vauto
p488
aVauto
p489
aF0
aF0
aF0
aF0
aaaaa(lp490
VtranslateY
p491
a(lp492
(lp493
F0
aF0
a(lp494
Vauto
p495
aVfixed
p496
aF0
aF0
aF0
aF1
aaaaa(lp497
VtranslateZ
p498
a(lp499
(lp500
F0
aF0
a(lp501
Vauto
p502
aVauto
p503
aF0
aF0
aF0
aF0
aaaaa(lp504
VrotateX
p505
a(lp506
(lp507
F0
aF0
a(lp508
Vauto
p509
aVauto
p510
aF0
aF0
aF0
aF0
aaaaa(lp511
VrotateY
p512
a(lp513
(lp514
F0
aF0
a(lp515
Vauto
p516
aVauto
p517
aF0
aF0
aF0
aF0
aaaaa(lp518
VrotateZ
p519
a(lp520
(lp521
F0
aF0
a(lp522
Vauto
p523
aVauto
p524
aF0
aF0
aF0
aF0
aaaaa(lp525
VlCalfTwistCtrlVis
p526
a(lp527
(lp528
F0
aF0
a(lp529
Vspline
p530
aVstep
p531
aF0
aF0
aF1
aF0
aaaaa(lp532
VrCalfTwistCtrlVis
p533
a(lp534
(lp535
F0
aF0
a(lp536
Vspline
p537
aVstep
p538
aF0
aF0
aF1
aF0
aaaaa(lp539
VautoHips
p540
a(lp541
(lp542
F0
aF0
a(lp543
Vauto
p544
aVauto
p545
aF0
aF0
aF0
aF0
aaaaaaaaa(lp546
S'clavicle_l_anim'
p547
a(lp548
(lp549
Na(lp550
(lp551
VtranslateX
p552
a(lp553
(lp554
F0
aF0.021999999999999999
a(lp555
Vfixed
p556
aVfixed
p557
aF0
aF0
aF1
aF1
aaa(lp558
F27
aF1.6154612370034016e-15
a(lp559
Vauto
p560
aVauto
p561
aF0
aF0
aF1
aF1
aaa(lp562
F54
aF0.23047469328049722
a(lp563
Vauto
p564
aVauto
p565
aF0.57546853091803163
aF0.57546853091803152
aF1
aF1
aaa(lp566
F67
aF0.40176633417550117
a(lp567
Vauto
p568
aVauto
p569
aF0
aF0
aF1
aF1
aaa(lp570
F95
aF0
a(lp571
Vauto
p572
aVauto
p573
aF0
aF0
aF1
aF1
aaa(lp574
F110
aF1.3939398211952503
a(lp575
Vauto
p576
aVauto
p577
aF0
aF0
aF1
aF1
aaa(lp578
F136
aF0
a(lp579
Vauto
p580
aVauto
p581
aF0
aF0
aF1
aF1
aaaaa(lp582
VtranslateY
p583
a(lp584
(lp585
F0
aF0
a(lp586
Vfixed
p587
aVfixed
p588
aF0
aF0
aF1
aF1
aaa(lp589
F27
aF-0.64741833806691329
a(lp590
Vauto
p591
aVauto
p592
aF-2.8437356587562079
aF-2.8437356587562079
aF1
aF1
aaa(lp593
F54
aF-2.6823606449341693
a(lp594
Vauto
p595
aVauto
p596
aF-3.8380470765770487
aF-3.8380470765770487
aF1
aF1
aaa(lp597
F67
aF-3.3308956381471253
a(lp598
Vauto
p599
aVauto
p600
aF0
aF0
aF1
aF1
aaa(lp601
F95
aF0
a(lp602
Vauto
p603
aVauto
p604
aF0
aF0
aF1
aF1
aaa(lp605
F110
aF-2.4245243652741149
a(lp606
Vauto
p607
aVauto
p608
aF0
aF0
aF1
aF1
aaa(lp609
F136
aF0
a(lp610
Vauto
p611
aVauto
p612
aF0
aF0
aF1
aF1
aaaaa(lp613
VtranslateZ
p614
a(lp615
(lp616
F0
aF0.19900000000000001
a(lp617
Vfixed
p618
aVfixed
p619
aF0
aF0
aF1
aF1
aaa(lp620
F27
aF0.96431991429893493
a(lp621
Vauto
p622
aVauto
p623
aF4.2470471783946726
aF4.2470471783946726
aF1
aF1
aaa(lp624
F54
aF4.2090948572784663
a(lp625
Vauto
p626
aVauto
p627
aF2.956401805182614
aF2.9564018051826144
aF1
aF1
aaa(lp628
F67
aF4.4328889366976103
a(lp629
Vauto
p630
aVauto
p631
aF0
aF0
aF1
aF1
aaa(lp632
F95
aF0
a(lp633
Vauto
p634
aVauto
p635
aF0
aF0
aF1
aF1
aaa(lp636
F110
aF2.6982893750864463
a(lp637
Vauto
p638
aVauto
p639
aF0
aF0
aF1
aF1
aaa(lp640
F136
aF0
a(lp641
Vauto
p642
aVauto
p643
aF0
aF0
aF1
aF1
aaaaa(lp644
VrotateX
p645
a(lp646
(lp647
F0
aF0
a(lp648
Vfixed
p649
aVfixed
p650
aF-28.318109021322666
aF-28.318117955382309
aF1
aF1
aaa(lp651
F27
aF-32.161882454259789
a(lp652
Vauto
p653
aVauto
p654
aF-12.030973887443507
aF-12.030973887443507
aF1
aF1
aaa(lp655
F54
aF-34.079977257345355
a(lp656
Vfixed
p657
aVfixed
p658
aF9.0924319345556484
aF9.0924325323541826
aF1
aF1
aaa(lp659
F67
aF-28.826447520761196
a(lp660
Vauto
p661
aVauto
p662
aF20.070372223389906
aF20.070372223389906
aF1
aF1
aaa(lp663
F95
aF-19.100143935754534
a(lp664
Vauto
p665
aVauto
p666
aF0
aF0
aF1
aF1
aaa(lp667
F105
aF-35.750463741105861
a(lp668
Vauto
p669
aVauto
p670
aF-53.392748354402798
aF-53.392748354402798
aF1
aF1
aaa(lp671
F110
aF-39.292321205988351
a(lp672
Vauto
p673
aVauto
p674
aF0
aF0
aF1
aF1
aaa(lp675
F136
aF0
a(lp676
Vauto
p677
aVauto
p678
aF0
aF0
aF1
aF1
aaaaa(lp679
VrotateY
p680
a(lp681
(lp682
F0
aF6.2460000000000013
a(lp683
Vfixed
p684
aVfixed
p685
aF0
aF0
aF1
aF1
aaa(lp686
F54
aF-6.1829207825913937
a(lp687
Vauto
p688
aVauto
p689
aF0
aF0
aF1
aF1
aaa(lp690
F67
aF-5.357104667327925
a(lp691
Vauto
p692
aVauto
p693
aF0
aF0
aF1
aF1
aaa(lp694
F95
aF-15.219799858402926
a(lp695
Vauto
p696
aVauto
p697
aF-18.206414541340926
aF-18.206414541340923
aF1
aF1
aaa(lp698
F105
aF-17.855583161604098
a(lp699
Vauto
p700
aVauto
p701
aF-9.4967203620956759
aF-9.4967203620956759
aF1
aF1
aaa(lp702
F110
aF-18.134389435397527
a(lp703
Vauto
p704
aVauto
p705
aF0
aF0
aF1
aF1
aaa(lp706
F136
aF0
a(lp707
Vauto
p708
aVauto
p709
aF0
aF0
aF1
aF1
aaaaa(lp710
VrotateZ
p711
a(lp712
(lp713
F0
aF0
a(lp714
Vfixed
p715
aVfixed
p716
aF0
aF0
aF1
aF1
aaa(lp717
F54
aF13.68521759351812
a(lp718
Vauto
p719
aVauto
p720
aF0
aF0
aF1
aF1
aaa(lp721
F67
aF11.511793324176413
a(lp722
Vauto
p723
aVauto
p724
aF-26.636486623008331
aF-26.636486623008331
aF1
aF1
aaa(lp725
F95
aF-11.253310042438255
a(lp726
Vauto
p727
aVauto
p728
aF-35.721642926360055
aF-35.721642926360055
aF1
aF1
aaa(lp729
F105
aF-15.815748144387525
a(lp730
Vauto
p731
aVauto
p732
aF-12.179361577366688
aF-12.179361577366688
aF1
aF1
aaa(lp733
F110
aF-16.175465866273992
a(lp734
Vauto
p735
aVauto
p736
aF0
aF0
aF1
aF1
aaa(lp737
F136
aF0
a(lp738
Vauto
p739
aVauto
p740
aF0
aF0
aF1
aF1
aaaaa(lp741
VautoShoulders
p742
a(lp743
(lp744
F0
aF0
a(lp745
Vauto
p746
aVauto
p747
aF0
aF0
aF1
aF1
aaa(lp748
F105
aF0
a(lp749
Vauto
p750
aVauto
p751
aF0
aF0
aF1
aF1
aaaaaaaaa(lp752
S'clavicle_r_anim'
p753
a(lp754
(lp755
Na(lp756
(lp757
VtranslateX
p758
a(lp759
(lp760
F0
aF-0.022215591322274353
a(lp761
Vauto
p762
aVauto
p763
aF0
aF0
aF0
aF0
aaaaa(lp764
VtranslateY
p765
a(lp766
(lp767
F0
aF0
a(lp768
Vauto
p769
aVauto
p770
aF0
aF0
aF0
aF0
aaaaa(lp771
VtranslateZ
p772
a(lp773
(lp774
F0
aF0.19902376453355991
a(lp775
Vauto
p776
aVauto
p777
aF0
aF0
aF0
aF0
aaaaa(lp778
VrotateX
p779
a(lp780
(lp781
F0
aF0
a(lp782
Vauto
p783
aVauto
p784
aF0
aF0
aF0
aF0
aaaaa(lp785
VrotateY
p786
a(lp787
(lp788
F0
aF-6.2462999254098763
a(lp789
Vauto
p790
aVauto
p791
aF0
aF0
aF0
aF0
aaaaa(lp792
VrotateZ
p793
a(lp794
(lp795
F0
aF0
a(lp796
Vauto
p797
aVauto
p798
aF0
aF0
aF0
aF0
aaaaa(lp799
VautoShoulders
p800
a(lp801
(lp802
F0
aF0
a(lp803
Vauto
p804
aVauto
p805
aF0
aF0
aF0
aF0
aaaaaaaaa(lp806
S'fk_arm_l_anim'
p807
a(lp808
(lp809
Na(lp810
(lp811
VrotateX
p812
a(lp813
(lp814
F0
aF8.6679999999999993
a(lp815
Vauto
p816
aVauto
p817
aF0
aF0
aF1
aF1
aaa(lp818
F27
aF-15.78283959528428
a(lp819
Vauto
p820
aVauto
p821
aF-6.8791087343725437
aF-6.8791087343725437
aF1
aF1
aaa(lp822
F54
aF-16.868629751575103
a(lp823
Vauto
p824
aVauto
p825
aF-5.8349632802767015
aF-5.8349632802767015
aF1
aF1
aaa(lp826
F67
aF-19.870553731873176
a(lp827
Vauto
p828
aVauto
p829
aF-13.556806478599563
aF-13.556806478599563
aF1
aF1
aaa(lp830
F95
aF-26.754861841257117
a(lp831
Vauto
p832
aVauto
p833
aF0
aF0
aF1
aF1
aaa(lp834
F110
aF18.443391999463859
a(lp835
Vauto
p836
aVauto
p837
aF0
aF0
aF1
aF1
aaa(lp838
F136
aF8.6679999999999993
a(lp839
Vfixed
p840
aVfixed
p841
aF-38.97650978358827
aF-38.976510346013072
aF1
aF1
aaaaa(lp842
VrotateY
p843
a(lp844
(lp845
F0
aF27.172000000000001
a(lp846
Vauto
p847
aVauto
p848
aF0
aF0
aF1
aF1
aaa(lp849
F27
aF23.945187616109948
a(lp850
Vauto
p851
aVauto
p852
aF-4.1893752603175551
aF-4.1893752603175551
aF1
aF1
aaa(lp853
F54
aF23.216555373264182
a(lp854
Vauto
p855
aVauto
p856
aF0
aF0
aF1
aF1
aaa(lp857
F67
aF24.817715283773495
a(lp858
Vauto
p859
aVauto
p860
aF0
aF0
aF1
aF1
aaa(lp861
F95
aF20.581609041647216
a(lp862
Vauto
p863
aVauto
p864
aF-24.411802977627055
aF-24.411802977627055
aF1
aF1
aaa(lp865
F110
aF2.9548899089047556
a(lp866
Vauto
p867
aVauto
p868
aF0
aF0
aF1
aF1
aaa(lp869
F122
aF18.176751822761425
a(lp870
Vfixed
p871
aVfixed
p872
aF62.069310717095291
aF62.069295555032532
aF1
aF1
aaa(lp873
F136
aF27.172000000000001
a(lp874
Vfixed
p875
aVfixed
p876
aF0
aF0
aF1
aF1
aaaaa(lp877
VrotateZ
p878
a(lp879
(lp880
F0
aF4.1989999999999998
a(lp881
Vauto
p882
aVauto
p883
aF0
aF0
aF1
aF1
aaa(lp884
F27
aF-49.115654973343808
a(lp885
Vauto
p886
aVauto
p887
aF-16.779238288722159
aF-16.779238288722159
aF1
aF1
aaa(lp888
F54
aF-51.829357015694377
a(lp889
Vauto
p890
aVauto
p891
aF-13.582521964490171
aF-13.582521964490176
aF1
aF1
aaa(lp892
F67
aF-58.77975812504225
a(lp893
Vauto
p894
aVauto
p895
aF0
aF0
aF1
aF1
aaa(lp896
F95
aF-36.650090007478774
a(lp897
Vauto
p898
aVauto
p899
aF0
aF0
aF1
aF1
aaa(lp900
F110
aF-67.321355004533544
a(lp901
Vauto
p902
aVauto
p903
aF0
aF0
aF1
aF1
aaa(lp904
F122
aF-59.751673516830643
a(lp905
Vfixed
p906
aVfixed
p907
aF66.345660341476389
aF66.345661535942071
aF1
aF1
aaa(lp908
F136
aF4.1989999999999998
a(lp909
Vfixed
p910
aVfixed
p911
aF30.969912327216587
aF30.969955160733907
aF1
aF1
aaaaaaaaa(lp912
S'fk_arm_r_anim'
p913
a(lp914
(lp915
Na(lp916
(lp917
VtranslateX
p918
a(lp919
(lp920
F0
aF0
a(lp921
Vauto
p922
aVauto
p923
aF0
aF0
aF0
aF0
aaaaa(lp924
VtranslateY
p925
a(lp926
(lp927
F0
aF0
a(lp928
Vauto
p929
aVauto
p930
aF0
aF0
aF0
aF0
aaaaa(lp931
VtranslateZ
p932
a(lp933
(lp934
F0
aF0
a(lp935
Vauto
p936
aVauto
p937
aF0
aF0
aF0
aF0
aaaaa(lp938
VrotateX
p939
a(lp940
(lp941
F0
aF8.7984690902426603
a(lp942
Vauto
p943
aVauto
p944
aF0
aF0
aF0
aF0
aaaaa(lp945
VrotateY
p946
a(lp947
(lp948
F0
aF28.762223526396333
a(lp949
Vauto
p950
aVauto
p951
aF0
aF0
aF0
aF0
aaaaa(lp952
VrotateZ
p953
a(lp954
(lp955
F0
aF4.4757967259617963
a(lp956
Vauto
p957
aVauto
p958
aF0
aF0
aF0
aF0
aaaaaaaaa(lp959
S'fk_elbow_l_anim'
p960
a(lp961
(lp962
Na(lp963
(lp964
VrotateX
p965
a(lp966
(lp967
F0
aF-2.9590000000000001
a(lp968
Vauto
p969
aVauto
p970
aF0
aF0
aF1
aF1
aaa(lp971
F27
aF-20.947351724962939
a(lp972
Vauto
p973
aVauto
p974
aF0
aF0
aF1
aF1
aaa(lp975
F88
aF-20.947351724962939
a(lp976
Vauto
p977
aVauto
p978
aF0
aF0
aF1
aF1
aaa(lp979
F101
aF-19.773810351524411
a(lp980
Vauto
p981
aVauto
p982
aF0
aF0
aF1
aF1
aaa(lp983
F110
aF-32.569876177253072
a(lp984
Vauto
p985
aVauto
p986
aF0
aF0
aF1
aF1
aaa(lp987
F123
aF-31.951067395463731
a(lp988
Vauto
p989
aVauto
p990
aF8.127007651672038
aF8.1270076516720362
aF1
aF1
aaa(lp991
F136
aF-2.9590000000000001
a(lp992
Vfixed
p993
aVfixed
p994
aF0
aF0
aF1
aF1
aaaaa(lp995
VrotateY
p996
a(lp997
(lp998
F0
aF1.5820000000000001
a(lp999
Vauto
p1000
aVauto
p1001
aF0
aF0
aF1
aF1
aaa(lp1002
F27
aF4.3041436636146351
a(lp1003
Vauto
p1004
aVauto
p1005
aF0
aF0
aF1
aF1
aaa(lp1006
F88
aF4.3041436636146351
a(lp1007
Vauto
p1008
aVauto
p1009
aF0
aF0
aF1
aF1
aaa(lp1010
F101
aF-17.317147711950486
a(lp1011
Vauto
p1012
aVauto
p1013
aF0
aF0
aF1
aF1
aaa(lp1014
F110
aF1.4228652075699841
a(lp1015
Vfixed
p1016
aVfixed
p1017
aF42.760407247740964
aF42.760377679135594
aF1
aF1
aaa(lp1018
F123
aF6.8318013109802811
a(lp1019
Vfixed
p1020
aVfixed
p1021
aF0.57116929429639662
aF0.57116785985180163
aF1
aF1
aaa(lp1022
F136
aF1.5820000000000001
a(lp1023
Vfixed
p1024
aVfixed
p1025
aF0
aF0
aF1
aF1
aaaaa(lp1026
VrotateZ
p1027
a(lp1028
(lp1029
F0
aF-0.19
a(lp1030
Vfixed
p1031
aVfixed
p1032
aF-67.601558917243153
aF-67.601559702669348
aF1
aF1
aaa(lp1033
F27
aF-68.785764462158951
a(lp1034
Vauto
p1035
aVauto
p1036
aF0
aF0
aF1
aF1
aaa(lp1037
F88
aF-68.785764462158951
a(lp1038
Vauto
p1039
aVauto
p1040
aF0
aF0
aF1
aF1
aaa(lp1041
F101
aF-65.371341143219126
a(lp1042
Vauto
p1043
aVauto
p1044
aF38.236125209208438
aF38.236125209208438
aF1
aF1
aaa(lp1045
F110
aF-48.707440366864788
a(lp1046
Vauto
p1047
aVauto
p1048
aF48.91920064949695
aF48.919200649496958
aF1
aF1
aaa(lp1049
F123
aF-40.135200993700323
a(lp1050
Vauto
p1051
aVauto
p1052
aF61.813598278510383
aF61.813598278510383
aF1
aF1
aaa(lp1053
F136
aF-0.19
a(lp1054
Vfixed
p1055
aVfixed
p1056
aF-5.1032968277646935
aF-5.1033033632681883
aF1
aF1
aaaaaaaaa(lp1057
S'fk_elbow_r_anim'
p1058
a(lp1059
(lp1060
Na(lp1061
(lp1062
VtranslateX
p1063
a(lp1064
(lp1065
F0
aF0
a(lp1066
Vauto
p1067
aVauto
p1068
aF0
aF0
aF1
aF1
aaa(lp1069
F18
aF0
a(lp1070
Vauto
p1071
aVauto
p1072
aF0
aF0
aF1
aF1
aaa(lp1073
F120
aF0
a(lp1074
Vfixed
p1075
aVfixed
p1076
aF0
aF0
aF1
aF1
aaa(lp1077
F136
aF0
a(lp1078
Vfixed
p1079
aVfixed
p1080
aF0
aF0
aF1
aF1
aaaaa(lp1081
VtranslateY
p1082
a(lp1083
(lp1084
F0
aF0
a(lp1085
Vauto
p1086
aVauto
p1087
aF0
aF0
aF1
aF1
aaa(lp1088
F18
aF0
a(lp1089
Vauto
p1090
aVauto
p1091
aF0
aF0
aF1
aF1
aaa(lp1092
F120
aF0
a(lp1093
Vfixed
p1094
aVfixed
p1095
aF0
aF0
aF1
aF1
aaa(lp1096
F136
aF0
a(lp1097
Vfixed
p1098
aVfixed
p1099
aF0
aF0
aF1
aF1
aaaaa(lp1100
VtranslateZ
p1101
a(lp1102
(lp1103
F0
aF0
a(lp1104
Vauto
p1105
aVauto
p1106
aF0
aF0
aF1
aF1
aaa(lp1107
F18
aF0
a(lp1108
Vauto
p1109
aVauto
p1110
aF0
aF0
aF1
aF1
aaa(lp1111
F120
aF0
a(lp1112
Vfixed
p1113
aVfixed
p1114
aF0
aF0
aF1
aF1
aaa(lp1115
F136
aF0
a(lp1116
Vfixed
p1117
aVfixed
p1118
aF0
aF0
aF1
aF1
aaaaa(lp1119
VrotateX
p1120
a(lp1121
(lp1122
F0
aF-3.6956422150845576
a(lp1123
Vauto
p1124
aVauto
p1125
aF0
aF0
aF1
aF1
aaa(lp1126
F18
aF-3.9343341399733904
a(lp1127
Vauto
p1128
aVauto
p1129
aF0
aF0
aF1
aF1
aaa(lp1130
F120
aF-3.9343341399733904
a(lp1131
Vfixed
p1132
aVfixed
p1133
aF0
aF0
aF1
aF1
aaa(lp1134
F136
aF-3.6956422150845576
a(lp1135
Vfixed
p1136
aVfixed
p1137
aF0
aF0
aF1
aF1
aaaaa(lp1138
VrotateY
p1139
a(lp1140
(lp1141
F0
aF1.5849060166293654
a(lp1142
Vauto
p1143
aVauto
p1144
aF0
aF0
aF1
aF1
aaa(lp1145
F18
aF0.82964501276488367
a(lp1146
Vauto
p1147
aVauto
p1148
aF0
aF0
aF1
aF1
aaa(lp1149
F120
aF0.82964501276488367
a(lp1150
Vfixed
p1151
aVfixed
p1152
aF0
aF0
aF1
aF1
aaa(lp1153
F136
aF1.5849060166293654
a(lp1154
Vfixed
p1155
aVfixed
p1156
aF0
aF0
aF1
aF1
aaaaa(lp1157
VrotateZ
p1158
a(lp1159
(lp1160
F0
aF-0.21409548772147224
a(lp1161
Vauto
p1162
aVauto
p1163
aF0
aF0
aF1
aF1
aaa(lp1164
F18
aF-11.50603125093256
a(lp1165
Vauto
p1166
aVauto
p1167
aF0
aF0
aF1
aF1
aaa(lp1168
F120
aF-11.50603125093256
a(lp1169
Vfixed
p1170
aVfixed
p1171
aF0
aF0
aF1
aF1
aaa(lp1172
F136
aF-0.21409548772147224
a(lp1173
Vfixed
p1174
aVfixed
p1175
aF0
aF0
aF1
aF1
aaaaaaaaa(lp1176
S'fk_wrist_l_anim'
p1177
a(lp1178
(lp1179
Na(lp1180
(lp1181
VrotateX
p1182
a(lp1183
(lp1184
F0
aF-8.2710000000000008
a(lp1185
Vauto
p1186
aVauto
p1187
aF0
aF0
aF1
aF1
aaa(lp1188
F27
aF1.6833722948388283
a(lp1189
Vfixed
p1190
aVfixed
p1191
aF24.415336498108665
aF24.415336930904587
aF1
aF1
aaa(lp1192
F54
aF10.39132144408166
a(lp1193
Vauto
p1194
aVauto
p1195
aF0
aF0
aF1
aF1
aaa(lp1196
F67
aF8.9181489929069624
a(lp1197
Vauto
p1198
aVauto
p1199
aF0
aF0
aF1
aF1
aaa(lp1200
F85
aF23.737584454221292
a(lp1201
Vfixed
p1202
aVfixed
p1203
aF0
aF0
aF1
aF1
aaa(lp1204
F100
aF19.253892491974952
a(lp1205
Vauto
p1206
aVauto
p1207
aF0
aF0
aF1
aF1
aaa(lp1208
F122
aF23.949129411427023
a(lp1209
Vauto
p1210
aVauto
p1211
aF0
aF0
aF1
aF1
aaa(lp1212
F136
aF-8.2710000000000008
a(lp1213
Vfixed
p1214
aVfixed
p1215
aF0
aF0
aF1
aF1
aaaaa(lp1216
VrotateY
p1217
a(lp1218
(lp1219
F0
aF0.43700000000000006
a(lp1220
Vauto
p1221
aVauto
p1222
aF0
aF0
aF1
aF1
aaa(lp1223
F27
aF12.613151333276377
a(lp1224
Vfixed
p1225
aVfixed
p1226
aF34.929599290907269
aF34.929598372084861
aF1
aF1
aaa(lp1227
F54
aF25.178439374148063
a(lp1228
Vauto
p1229
aVauto
p1230
aF23.913703853428604
aF23.913703853428608
aF1
aF1
aaa(lp1231
F67
aF30.350158290256697
a(lp1232
Vauto
p1233
aVauto
p1234
aF0
aF0
aF1
aF1
aaa(lp1235
F85
aF8.0413452673344032
a(lp1236
Vfixed
p1237
aVfixed
p1238
aF-63.628748941267787
aF-63.62874666627912
aF1
aF1
aaa(lp1239
F100
aF-14.888847358585714
a(lp1240
Vauto
p1241
aVauto
p1242
aF0
aF0
aF1
aF1
aaa(lp1243
F122
aF-3.3218894999030431
a(lp1244
Vauto
p1245
aVauto
p1246
aF23.060326946640608
aF23.060326946640604
aF1
aF1
aaa(lp1247
F136
aF0.43700000000000006
a(lp1248
Vfixed
p1249
aVfixed
p1250
aF0
aF0
aF1
aF1
aaaaa(lp1251
VrotateZ
p1252
a(lp1253
(lp1254
F0
aF-1.3620000000000001
a(lp1255
Vauto
p1256
aVauto
p1257
aF0
aF0
aF1
aF1
aaa(lp1258
F27
aF20.663705343295597
a(lp1259
Vauto
p1260
aVauto
p1261
aF11.848447337253566
aF11.848447337253566
aF1
aF1
aaa(lp1262
F54
aF22.551846908331154
a(lp1263
Vauto
p1264
aVauto
p1265
aF0
aF0
aF1
aF1
aaa(lp1266
F67
aF11.62945439775093
a(lp1267
Vauto
p1268
aVauto
p1269
aF0
aF0
aF1
aF1
aaa(lp1270
F85
aF14.790118314800484
a(lp1271
Vfixed
p1272
aVfixed
p1273
aF1.0977877029689496
aF1.0977877029689498
aF1
aF1
aaa(lp1274
F100
aF61.998631324886887
a(lp1275
Vauto
p1276
aVauto
p1277
aF0
aF0
aF1
aF1
aaa(lp1278
F122
aF32.731846295659281
a(lp1279
Vfixed
p1280
aVfixed
p1281
aF-71.652201059521275
aF-71.652197973548525
aF1
aF1
aaa(lp1282
F136
aF-1.3620000000000001
a(lp1283
Vfixed
p1284
aVfixed
p1285
aF0
aF0
aF1
aF1
aaaaaaaaa(lp1286
S'fk_wrist_r_anim'
p1287
a(lp1288
(lp1289
Na(lp1290
(lp1291
VtranslateX
p1292
a(lp1293
(lp1294
F0
aF0
a(lp1295
Vauto
p1296
aVauto
p1297
aF0
aF0
aF0
aF0
aaaaa(lp1298
VtranslateY
p1299
a(lp1300
(lp1301
F0
aF0
a(lp1302
Vauto
p1303
aVauto
p1304
aF0
aF0
aF0
aF0
aaaaa(lp1305
VtranslateZ
p1306
a(lp1307
(lp1308
F0
aF0
a(lp1309
Vauto
p1310
aVauto
p1311
aF0
aF0
aF0
aF0
aaaaa(lp1312
VrotateX
p1313
a(lp1314
(lp1315
F0
aF-7.5486245719903025
a(lp1316
Vauto
p1317
aVauto
p1318
aF0
aF0
aF0
aF0
aaaaa(lp1319
VrotateY
p1320
a(lp1321
(lp1322
F0
aF0.38908356204624822
a(lp1323
Vauto
p1324
aVauto
p1325
aF0
aF0
aF0
aF0
aaaaa(lp1326
VrotateZ
p1327
a(lp1328
(lp1329
F0
aF-1.356404922970051
a(lp1330
Vauto
p1331
aVauto
p1332
aF0
aF0
aF0
aF0
aaaaaaaaa(lp1333
S'ik_elbow_l_anim'
p1334
a(lp1335
(lp1336
Na(lp1337
aaaa(lp1338
S'ik_elbow_r_anim'
p1339
a(lp1340
(lp1341
Na(lp1342
aaaa(lp1343
S'ik_wrist_l_anim'
p1344
a(lp1345
(lp1346
Na(lp1347
aaaa(lp1348
S'ik_wrist_r_anim'
p1349
a(lp1350
(lp1351
Na(lp1352
aaaa(lp1353
S'fk_thigh_l_anim'
p1354
a(lp1355
(lp1356
Na(lp1357
aaaa(lp1358
S'fk_thigh_r_anim'
p1359
a(lp1360
(lp1361
Na(lp1362
(lp1363
VrotateX
p1364
a(lp1365
(lp1366
F0
aF0
a(lp1367
Vauto
p1368
aVauto
p1369
aF0
aF0
aF0
aF0
aaaaa(lp1370
VrotateY
p1371
a(lp1372
(lp1373
F0
aF0
a(lp1374
Vauto
p1375
aVauto
p1376
aF0
aF0
aF0
aF0
aaaaa(lp1377
VrotateZ
p1378
a(lp1379
(lp1380
F0
aF0
a(lp1381
Vauto
p1382
aVauto
p1383
aF0
aF0
aF0
aF0
aaaaaaaaa(lp1384
S'fk_calf_l_anim'
p1385
a(lp1386
(lp1387
Na(lp1388
aaaa(lp1389
S'fk_calf_r_anim'
p1390
a(lp1391
(lp1392
Na(lp1393
(lp1394
VrotateX
p1395
a(lp1396
(lp1397
F0
aF0
a(lp1398
Vauto
p1399
aVauto
p1400
aF0
aF0
aF0
aF0
aaaaa(lp1401
VrotateY
p1402
a(lp1403
(lp1404
F0
aF0
a(lp1405
Vauto
p1406
aVauto
p1407
aF0
aF0
aF0
aF0
aaaaa(lp1408
VrotateZ
p1409
a(lp1410
(lp1411
F0
aF0
a(lp1412
Vauto
p1413
aVauto
p1414
aF0
aF0
aF0
aF0
aaaaaaaaa(lp1415
S'fk_foot_l_anim'
p1416
a(lp1417
(lp1418
Na(lp1419
aaaa(lp1420
S'fk_foot_r_anim'
p1421
a(lp1422
(lp1423
Na(lp1424
(lp1425
VrotateX
p1426
a(lp1427
(lp1428
F0
aF0
a(lp1429
Vauto
p1430
aVauto
p1431
aF0
aF0
aF0
aF0
aaaaa(lp1432
VrotateY
p1433
a(lp1434
(lp1435
F0
aF0
a(lp1436
Vauto
p1437
aVauto
p1438
aF0
aF0
aF0
aF0
aaaaa(lp1439
VrotateZ
p1440
a(lp1441
(lp1442
F0
aF0
a(lp1443
Vauto
p1444
aVauto
p1445
aF0
aF0
aF0
aF0
aaaaaaaaa(lp1446
S'fk_ball_l_anim'
p1447
a(lp1448
(lp1449
Na(lp1450
aaaa(lp1451
S'fk_ball_r_anim'
p1452
a(lp1453
(lp1454
Na(lp1455
(lp1456
VrotateX
p1457
a(lp1458
(lp1459
F0
aF0
a(lp1460
Vauto
p1461
aVauto
p1462
aF0
aF0
aF0
aF0
aaaaa(lp1463
VrotateY
p1464
a(lp1465
(lp1466
F0
aF0
a(lp1467
Vauto
p1468
aVauto
p1469
aF0
aF0
aF0
aF0
aaaaa(lp1470
VrotateZ
p1471
a(lp1472
(lp1473
F0
aF0
a(lp1474
Vauto
p1475
aVauto
p1476
aF0
aF0
aF0
aF0
aaaaaaaaa(lp1477
S'ik_foot_anim_l'
p1478
a(lp1479
(lp1480
Na(lp1481
(lp1482
VtranslateX
p1483
a(lp1484
(lp1485
F0
aF0
a(lp1486
Vauto
p1487
aVauto
p1488
aF0
aF0
aF0
aF0
aaaaa(lp1489
VtranslateY
p1490
a(lp1491
(lp1492
F0
aF0
a(lp1493
Vauto
p1494
aVauto
p1495
aF0
aF0
aF0
aF0
aaaaa(lp1496
VtranslateZ
p1497
a(lp1498
(lp1499
F0
aF0
a(lp1500
Vauto
p1501
aVauto
p1502
aF0
aF0
aF0
aF0
aaaaa(lp1503
VrotateX
p1504
a(lp1505
(lp1506
F0
aF0
a(lp1507
Vauto
p1508
aVauto
p1509
aF0
aF0
aF0
aF0
aaaaa(lp1510
VrotateY
p1511
a(lp1512
(lp1513
F0
aF0
a(lp1514
Vauto
p1515
aVauto
p1516
aF0
aF0
aF0
aF0
aaaaa(lp1517
VrotateZ
p1518
a(lp1519
(lp1520
F0
aF0
a(lp1521
Vauto
p1522
aVauto
p1523
aF0
aF0
aF0
aF0
aaaaa(lp1524
Vknee_twist
p1525
a(lp1526
(lp1527
F0
aF0
a(lp1528
Vauto
p1529
aVauto
p1530
aF0
aF0
aF0
aF0
aaaaa(lp1531
Vstretch
p1532
a(lp1533
(lp1534
F0
aF0
a(lp1535
Vauto
p1536
aVauto
p1537
aF0
aF0
aF0
aF0
aaaaa(lp1538
Vsquash
p1539
a(lp1540
(lp1541
F0
aF0
a(lp1542
Vauto
p1543
aVauto
p1544
aF0
aF0
aF0
aF0
aaaaa(lp1545
VtoeCtrlVis
p1546
a(lp1547
(lp1548
F0
aF0
a(lp1549
Vspline
p1550
aVstep
p1551
aF0
aF0
aF1
aF0
aaaaa(lp1552
VstretchBias
p1553
a(lp1554
(lp1555
F0
aF0
a(lp1556
Vauto
p1557
aVauto
p1558
aF0
aF0
aF0
aF0
aaaaaaaaa(lp1559
S'ik_foot_anim_r'
p1560
a(lp1561
(lp1562
Na(lp1563
(lp1564
VtranslateX
p1565
a(lp1566
(lp1567
F0
aF0
a(lp1568
Vauto
p1569
aVauto
p1570
aF0
aF0
aF0
aF0
aaaaa(lp1571
VtranslateY
p1572
a(lp1573
(lp1574
F0
aF0
a(lp1575
Vauto
p1576
aVauto
p1577
aF0
aF0
aF0
aF0
aaaaa(lp1578
VtranslateZ
p1579
a(lp1580
(lp1581
F0
aF0
a(lp1582
Vauto
p1583
aVauto
p1584
aF0
aF0
aF0
aF0
aaaaa(lp1585
VrotateX
p1586
a(lp1587
(lp1588
F0
aF0
a(lp1589
Vauto
p1590
aVauto
p1591
aF0
aF0
aF0
aF0
aaaaa(lp1592
VrotateY
p1593
a(lp1594
(lp1595
F0
aF0
a(lp1596
Vauto
p1597
aVauto
p1598
aF0
aF0
aF0
aF0
aaaaa(lp1599
VrotateZ
p1600
a(lp1601
(lp1602
F0
aF0
a(lp1603
Vauto
p1604
aVauto
p1605
aF0
aF0
aF0
aF0
aaaaa(lp1606
Vknee_twist
p1607
a(lp1608
(lp1609
F0
aF0
a(lp1610
Vauto
p1611
aVauto
p1612
aF0
aF0
aF0
aF0
aaaaa(lp1613
Vstretch
p1614
a(lp1615
(lp1616
F0
aF0
a(lp1617
Vauto
p1618
aVauto
p1619
aF0
aF0
aF0
aF0
aaaaa(lp1620
Vsquash
p1621
a(lp1622
(lp1623
F0
aF0
a(lp1624
Vauto
p1625
aVauto
p1626
aF0
aF0
aF0
aF0
aaaaa(lp1627
VtoeCtrlVis
p1628
a(lp1629
(lp1630
F0
aF0
a(lp1631
Vspline
p1632
aVstep
p1633
aF0
aF0
aF1
aF0
aaaaa(lp1634
VstretchBias
p1635
a(lp1636
(lp1637
F0
aF0
a(lp1638
Vauto
p1639
aVauto
p1640
aF0
aF0
aF0
aF0
aaaaaaaaa(lp1641
S'heel_ctrl_l'
p1642
a(lp1643
(lp1644
Na(lp1645
(lp1646
VrotateX
p1647
a(lp1648
(lp1649
F0
aF0
a(lp1650
Vauto
p1651
aVauto
p1652
aF0
aF0
aF0
aF0
aaaaa(lp1653
VrotateY
p1654
a(lp1655
(lp1656
F0
aF0
a(lp1657
Vauto
p1658
aVauto
p1659
aF0
aF0
aF0
aF0
aaaaa(lp1660
VrotateZ
p1661
a(lp1662
(lp1663
F0
aF0
a(lp1664
Vauto
p1665
aVauto
p1666
aF0
aF0
aF0
aF0
aaaaa(lp1667
VheelPivot
p1668
a(lp1669
(lp1670
F0
aF0
a(lp1671
Vauto
p1672
aVauto
p1673
aF0
aF0
aF0
aF0
aaaaa(lp1674
VballPivot
p1675
a(lp1676
(lp1677
F0
aF0
a(lp1678
Vauto
p1679
aVauto
p1680
aF0
aF0
aF0
aF0
aaaaaaaaa(lp1681
S'heel_ctrl_r'
p1682
a(lp1683
(lp1684
Na(lp1685
(lp1686
VrotateX
p1687
a(lp1688
(lp1689
F0
aF0
a(lp1690
Vauto
p1691
aVauto
p1692
aF0
aF0
aF0
aF0
aaaaa(lp1693
VrotateY
p1694
a(lp1695
(lp1696
F0
aF0
a(lp1697
Vauto
p1698
aVauto
p1699
aF0
aF0
aF0
aF0
aaaaa(lp1700
VrotateZ
p1701
a(lp1702
(lp1703
F0
aF0
a(lp1704
Vauto
p1705
aVauto
p1706
aF0
aF0
aF0
aF0
aaaaa(lp1707
VheelPivot
p1708
a(lp1709
(lp1710
F0
aF0
a(lp1711
Vauto
p1712
aVauto
p1713
aF0
aF0
aF0
aF0
aaaaa(lp1714
VballPivot
p1715
a(lp1716
(lp1717
F0
aF0
a(lp1718
Vauto
p1719
aVauto
p1720
aF0
aF0
aF0
aF0
aaaaaaaaa(lp1721
S'toe_wiggle_ctrl_l'
p1722
a(lp1723
(lp1724
Na(lp1725
(lp1726
VrotateX
p1727
a(lp1728
(lp1729
F0
aF0
a(lp1730
Vauto
p1731
aVauto
p1732
aF0
aF0
aF0
aF0
aaaaa(lp1733
VrotateY
p1734
a(lp1735
(lp1736
F0
aF0
a(lp1737
Vauto
p1738
aVauto
p1739
aF0
aF0
aF0
aF0
aaaaa(lp1740
VrotateZ
p1741
a(lp1742
(lp1743
F0
aF0
a(lp1744
Vauto
p1745
aVauto
p1746
aF0
aF0
aF0
aF0
aaaaaaaaa(lp1747
S'toe_wiggle_ctrl_r'
p1748
a(lp1749
(lp1750
Na(lp1751
(lp1752
VrotateX
p1753
a(lp1754
(lp1755
F0
aF0
a(lp1756
Vauto
p1757
aVauto
p1758
aF0
aF0
aF0
aF0
aaaaa(lp1759
VrotateY
p1760
a(lp1761
(lp1762
F0
aF0
a(lp1763
Vauto
p1764
aVauto
p1765
aF0
aF0
aF0
aF0
aaaaa(lp1766
VrotateZ
p1767
a(lp1768
(lp1769
F0
aF0
a(lp1770
Vauto
p1771
aVauto
p1772
aF0
aF0
aF0
aF0
aaaaaaaaa(lp1773
S'toe_tip_ctrl_l'
p1774
a(lp1775
(lp1776
Na(lp1777
(lp1778
VrotateX
p1779
a(lp1780
(lp1781
F0
aF0
a(lp1782
Vauto
p1783
aVauto
p1784
aF0
aF0
aF0
aF0
aaaaa(lp1785
VrotateY
p1786
a(lp1787
(lp1788
F0
aF0
a(lp1789
Vauto
p1790
aVauto
p1791
aF0
aF0
aF0
aF0
aaaaa(lp1792
VrotateZ
p1793
a(lp1794
(lp1795
F0
aF0
a(lp1796
Vauto
p1797
aVauto
p1798
aF0
aF0
aF0
aF0
aaaaaaaaa(lp1799
S'toe_tip_ctrl_r'
p1800
a(lp1801
(lp1802
Na(lp1803
(lp1804
VrotateX
p1805
a(lp1806
(lp1807
F0
aF0
a(lp1808
Vauto
p1809
aVauto
p1810
aF0
aF0
aF0
aF0
aaaaa(lp1811
VrotateY
p1812
a(lp1813
(lp1814
F0
aF0
a(lp1815
Vauto
p1816
aVauto
p1817
aF0
aF0
aF0
aF0
aaaaa(lp1818
VrotateZ
p1819
a(lp1820
(lp1821
F0
aF0
a(lp1822
Vauto
p1823
aVauto
p1824
aF0
aF0
aF0
aF0
aaaaaaaaa(lp1825
S'master_anim'
p1826
a(lp1827
(lp1828
Na(lp1829
(lp1830
VtranslateX
p1831
a(lp1832
(lp1833
F0
aF0
a(lp1834
Vauto
p1835
aVauto
p1836
aF0
aF0
aF0
aF0
aaaaa(lp1837
VtranslateY
p1838
a(lp1839
(lp1840
F0
aF0
a(lp1841
Vauto
p1842
aVauto
p1843
aF0
aF0
aF0
aF0
aaaaa(lp1844
VtranslateZ
p1845
a(lp1846
(lp1847
F0
aF0
a(lp1848
Vauto
p1849
aVauto
p1850
aF0
aF0
aF0
aF0
aaaaa(lp1851
VrotateX
p1852
a(lp1853
(lp1854
F0
aF0
a(lp1855
Vauto
p1856
aVauto
p1857
aF0
aF0
aF0
aF0
aaaaa(lp1858
VrotateY
p1859
a(lp1860
(lp1861
F0
aF0
a(lp1862
Vauto
p1863
aVauto
p1864
aF0
aF0
aF0
aF0
aaaaa(lp1865
VrotateZ
p1866
a(lp1867
(lp1868
F0
aF0
a(lp1869
Vauto
p1870
aVauto
p1871
aF0
aF0
aF0
aF0
aaaaaaaaa(lp1872
S'offset_anim'
p1873
a(lp1874
(lp1875
Na(lp1876
(lp1877
VtranslateX
p1878
a(lp1879
(lp1880
F0
aF0
a(lp1881
Vauto
p1882
aVauto
p1883
aF0
aF0
aF0
aF0
aaaaa(lp1884
VtranslateY
p1885
a(lp1886
(lp1887
F0
aF0
a(lp1888
Vauto
p1889
aVauto
p1890
aF0
aF0
aF0
aF0
aaaaa(lp1891
VtranslateZ
p1892
a(lp1893
(lp1894
F0
aF0
a(lp1895
Vauto
p1896
aVauto
p1897
aF0
aF0
aF0
aF0
aaaaa(lp1898
VrotateX
p1899
a(lp1900
(lp1901
F0
aF0
a(lp1902
Vauto
p1903
aVauto
p1904
aF0
aF0
aF0
aF0
aaaaa(lp1905
VrotateY
p1906
a(lp1907
(lp1908
F0
aF0
a(lp1909
Vauto
p1910
aVauto
p1911
aF0
aF0
aF0
aF0
aaaaa(lp1912
VrotateZ
p1913
a(lp1914
(lp1915
F0
aF0
a(lp1916
Vauto
p1917
aVauto
p1918
aF0
aF0
aF0
aF0
aaaaaaaaa(lp1919
S'root_anim'
p1920
a(lp1921
(lp1922
Na(lp1923
(lp1924
VtranslateX
p1925
a(lp1926
(lp1927
F0
aF0
a(lp1928
Vauto
p1929
aVauto
p1930
aF0
aF0
aF0
aF0
aaaaa(lp1931
VtranslateY
p1932
a(lp1933
(lp1934
F0
aF0
a(lp1935
Vauto
p1936
aVauto
p1937
aF0
aF0
aF0
aF0
aaaaa(lp1938
VtranslateZ
p1939
a(lp1940
(lp1941
F0
aF0
a(lp1942
Vauto
p1943
aVauto
p1944
aF0
aF0
aF0
aF0
aaaaa(lp1945
VrotateX
p1946
a(lp1947
(lp1948
F0
aF0
a(lp1949
Vauto
p1950
aVauto
p1951
aF0
aF0
aF0
aF0
aaaaa(lp1952
VrotateY
p1953
a(lp1954
(lp1955
F0
aF0
a(lp1956
Vauto
p1957
aVauto
p1958
aF0
aF0
aF0
aF0
aaaaa(lp1959
VrotateZ
p1960
a(lp1961
(lp1962
F0
aF0
a(lp1963
Vauto
p1964
aVauto
p1965
aF0
aF0
aF0
aF0
aaaaaaaaa(lp1966
S'upperarm_l_twist_anim'
p1967
a(lp1968
(lp1969
Na(lp1970
aaaa(lp1971
S'upperarm_r_twist_anim'
p1972
a(lp1973
(lp1974
Na(lp1975
aaaa(lp1976
g1973
aa(lp1977
g1973
aa(lp1978
g1973
aa(lp1979
g1973
aa(lp1980
S'pinky_finger_fk_ctrl_1_l'
p1981
a(lp1982
(lp1983
Na(lp1984
(lp1985
VtranslateX
p1986
a(lp1987
(lp1988
F0
aF0
a(lp1989
Vauto
p1990
aVauto
p1991
aF0
aF0
aF1
aF1
aaa(lp1992
F11
aF0
a(lp1993
Vauto
p1994
aVauto
p1995
aF0
aF0
aF1
aF1
aaa(lp1996
F125
aF0
a(lp1997
Vfixed
p1998
aVfixed
p1999
aF0
aF0
aF1
aF1
aaa(lp2000
F134
aF0
a(lp2001
Vfixed
p2002
aVfixed
p2003
aF0
aF0
aF1
aF1
aaaaa(lp2004
VtranslateY
p2005
a(lp2006
(lp2007
F0
aF0
a(lp2008
Vauto
p2009
aVauto
p2010
aF0
aF0
aF1
aF1
aaa(lp2011
F11
aF0
a(lp2012
Vauto
p2013
aVauto
p2014
aF0
aF0
aF1
aF1
aaa(lp2015
F125
aF0
a(lp2016
Vfixed
p2017
aVfixed
p2018
aF0
aF0
aF1
aF1
aaa(lp2019
F134
aF0
a(lp2020
Vfixed
p2021
aVfixed
p2022
aF0
aF0
aF1
aF1
aaaaa(lp2023
VtranslateZ
p2024
a(lp2025
(lp2026
F0
aF0
a(lp2027
Vauto
p2028
aVauto
p2029
aF0
aF0
aF1
aF1
aaa(lp2030
F11
aF0
a(lp2031
Vauto
p2032
aVauto
p2033
aF0
aF0
aF1
aF1
aaa(lp2034
F125
aF0
a(lp2035
Vfixed
p2036
aVfixed
p2037
aF0
aF0
aF1
aF1
aaa(lp2038
F134
aF0
a(lp2039
Vfixed
p2040
aVfixed
p2041
aF0
aF0
aF1
aF1
aaaaa(lp2042
VrotateX
p2043
a(lp2044
(lp2045
F0
aF0
a(lp2046
Vauto
p2047
aVauto
p2048
aF0
aF0
aF1
aF1
aaa(lp2049
F11
aF0
a(lp2050
Vauto
p2051
aVauto
p2052
aF0
aF0
aF1
aF1
aaa(lp2053
F125
aF0
a(lp2054
Vfixed
p2055
aVfixed
p2056
aF0
aF0
aF1
aF1
aaa(lp2057
F134
aF0
a(lp2058
Vfixed
p2059
aVfixed
p2060
aF0
aF0
aF1
aF1
aaaaa(lp2061
VrotateY
p2062
a(lp2063
(lp2064
F0
aF0
a(lp2065
Vauto
p2066
aVauto
p2067
aF0
aF0
aF1
aF1
aaa(lp2068
F11
aF0
a(lp2069
Vauto
p2070
aVauto
p2071
aF0
aF0
aF1
aF1
aaa(lp2072
F125
aF0
a(lp2073
Vfixed
p2074
aVfixed
p2075
aF0
aF0
aF1
aF1
aaa(lp2076
F134
aF0
a(lp2077
Vfixed
p2078
aVfixed
p2079
aF0
aF0
aF1
aF1
aaaaa(lp2080
VrotateZ
p2081
a(lp2082
(lp2083
F0
aF0
a(lp2084
Vauto
p2085
aVauto
p2086
aF0
aF0
aF1
aF1
aaa(lp2087
F11
aF-21.496882803406312
a(lp2088
Vauto
p2089
aVauto
p2090
aF0
aF0
aF1
aF1
aaa(lp2091
F125
aF-21.496882803406312
a(lp2092
Vfixed
p2093
aVfixed
p2094
aF0
aF0
aF1
aF1
aaa(lp2095
F134
aF0
a(lp2096
Vfixed
p2097
aVfixed
p2098
aF0
aF0
aF1
aF1
aaaaa(lp2099
Vsticky
p2100
a(lp2101
(lp2102
F0
aF0
a(lp2103
Vauto
p2104
aVauto
p2105
aF0
aF0
aF1
aF1
aaa(lp2106
F11
aF0
a(lp2107
Vauto
p2108
aVauto
p2109
aF0
aF0
aF1
aF1
aaa(lp2110
F125
aF0
a(lp2111
Vfixed
p2112
aVfixed
p2113
aF0
aF0
aF1
aF1
aaa(lp2114
F134
aF0
a(lp2115
Vfixed
p2116
aVfixed
p2117
aF0
aF0
aF1
aF1
aaaaaaaaa(lp2118
S'pinky_finger_fk_ctrl_1_r'
p2119
a(lp2120
(lp2121
Na(lp2122
(lp2123
VtranslateX
p2124
a(lp2125
(lp2126
F0
aF0
a(lp2127
Vauto
p2128
aVauto
p2129
aF0
aF0
aF0
aF0
aaaaa(lp2130
VtranslateY
p2131
a(lp2132
(lp2133
F0
aF0
a(lp2134
Vauto
p2135
aVauto
p2136
aF0
aF0
aF0
aF0
aaaaa(lp2137
VtranslateZ
p2138
a(lp2139
(lp2140
F0
aF0
a(lp2141
Vauto
p2142
aVauto
p2143
aF0
aF0
aF0
aF0
aaaaa(lp2144
VrotateX
p2145
a(lp2146
(lp2147
F0
aF0
a(lp2148
Vauto
p2149
aVauto
p2150
aF0
aF0
aF0
aF0
aaaaa(lp2151
VrotateY
p2152
a(lp2153
(lp2154
F0
aF0
a(lp2155
Vauto
p2156
aVauto
p2157
aF0
aF0
aF0
aF0
aaaaa(lp2158
VrotateZ
p2159
a(lp2160
(lp2161
F0
aF75.036410423886238
a(lp2162
Vauto
p2163
aVauto
p2164
aF0
aF0
aF0
aF0
aaaaa(lp2165
Vsticky
p2166
a(lp2167
(lp2168
F0
aF0
a(lp2169
Vauto
p2170
aVauto
p2171
aF0
aF0
aF0
aF0
aaaaaaaaa(lp2172
S'pinky_finger_fk_ctrl_2_l'
p2173
a(lp2174
(lp2175
Na(lp2176
(lp2177
VtranslateX
p2178
a(lp2179
(lp2180
F0
aF0
a(lp2181
Vauto
p2182
aVauto
p2183
aF0
aF0
aF1
aF1
aaa(lp2184
F11
aF0
a(lp2185
Vauto
p2186
aVauto
p2187
aF0
aF0
aF1
aF1
aaa(lp2188
F125
aF0
a(lp2189
Vfixed
p2190
aVfixed
p2191
aF0
aF0
aF1
aF1
aaa(lp2192
F134
aF0
a(lp2193
Vfixed
p2194
aVfixed
p2195
aF0
aF0
aF1
aF1
aaaaa(lp2196
VtranslateY
p2197
a(lp2198
(lp2199
F0
aF0
a(lp2200
Vauto
p2201
aVauto
p2202
aF0
aF0
aF1
aF1
aaa(lp2203
F11
aF0
a(lp2204
Vauto
p2205
aVauto
p2206
aF0
aF0
aF1
aF1
aaa(lp2207
F125
aF0
a(lp2208
Vfixed
p2209
aVfixed
p2210
aF0
aF0
aF1
aF1
aaa(lp2211
F134
aF0
a(lp2212
Vfixed
p2213
aVfixed
p2214
aF0
aF0
aF1
aF1
aaaaa(lp2215
VtranslateZ
p2216
a(lp2217
(lp2218
F0
aF0
a(lp2219
Vauto
p2220
aVauto
p2221
aF0
aF0
aF1
aF1
aaa(lp2222
F11
aF0
a(lp2223
Vauto
p2224
aVauto
p2225
aF0
aF0
aF1
aF1
aaa(lp2226
F125
aF0
a(lp2227
Vfixed
p2228
aVfixed
p2229
aF0
aF0
aF1
aF1
aaa(lp2230
F134
aF0
a(lp2231
Vfixed
p2232
aVfixed
p2233
aF0
aF0
aF1
aF1
aaaaa(lp2234
VrotateX
p2235
a(lp2236
(lp2237
F0
aF0
a(lp2238
Vauto
p2239
aVauto
p2240
aF0
aF0
aF1
aF1
aaa(lp2241
F11
aF0
a(lp2242
Vauto
p2243
aVauto
p2244
aF0
aF0
aF1
aF1
aaa(lp2245
F125
aF0
a(lp2246
Vfixed
p2247
aVfixed
p2248
aF0
aF0
aF1
aF1
aaa(lp2249
F134
aF0
a(lp2250
Vfixed
p2251
aVfixed
p2252
aF0
aF0
aF1
aF1
aaaaa(lp2253
VrotateY
p2254
a(lp2255
(lp2256
F0
aF0
a(lp2257
Vauto
p2258
aVauto
p2259
aF0
aF0
aF1
aF1
aaa(lp2260
F11
aF0
a(lp2261
Vauto
p2262
aVauto
p2263
aF0
aF0
aF1
aF1
aaa(lp2264
F125
aF0
a(lp2265
Vfixed
p2266
aVfixed
p2267
aF0
aF0
aF1
aF1
aaa(lp2268
F134
aF0
a(lp2269
Vfixed
p2270
aVfixed
p2271
aF0
aF0
aF1
aF1
aaaaa(lp2272
VrotateZ
p2273
a(lp2274
(lp2275
F0
aF0
a(lp2276
Vauto
p2277
aVauto
p2278
aF0
aF0
aF1
aF1
aaa(lp2279
F11
aF23.158840995997782
a(lp2280
Vauto
p2281
aVauto
p2282
aF0
aF0
aF1
aF1
aaa(lp2283
F125
aF23.158840995997782
a(lp2284
Vfixed
p2285
aVfixed
p2286
aF0
aF0
aF1
aF1
aaa(lp2287
F134
aF0
a(lp2288
Vfixed
p2289
aVfixed
p2290
aF0
aF0
aF1
aF1
aaaaaaaaa(lp2291
S'pinky_finger_fk_ctrl_2_r'
p2292
a(lp2293
(lp2294
Na(lp2295
(lp2296
VtranslateX
p2297
a(lp2298
(lp2299
F0
aF0
a(lp2300
Vauto
p2301
aVauto
p2302
aF0
aF0
aF0
aF0
aaaaa(lp2303
VtranslateY
p2304
a(lp2305
(lp2306
F0
aF0
a(lp2307
Vauto
p2308
aVauto
p2309
aF0
aF0
aF0
aF0
aaaaa(lp2310
VtranslateZ
p2311
a(lp2312
(lp2313
F0
aF0
a(lp2314
Vauto
p2315
aVauto
p2316
aF0
aF0
aF0
aF0
aaaaa(lp2317
VrotateX
p2318
a(lp2319
(lp2320
F0
aF0
a(lp2321
Vauto
p2322
aVauto
p2323
aF0
aF0
aF0
aF0
aaaaa(lp2324
VrotateY
p2325
a(lp2326
(lp2327
F0
aF0
a(lp2328
Vauto
p2329
aVauto
p2330
aF0
aF0
aF0
aF0
aaaaa(lp2331
VrotateZ
p2332
a(lp2333
(lp2334
F0
aF0
a(lp2335
Vauto
p2336
aVauto
p2337
aF0
aF0
aF0
aF0
aaaaaaaaa(lp2338
S'pinky_finger_fk_ctrl_3_l'
p2339
a(lp2340
(lp2341
Na(lp2342
(lp2343
VtranslateX
p2344
a(lp2345
(lp2346
F0
aF0
a(lp2347
Vauto
p2348
aVauto
p2349
aF0
aF0
aF0
aF0
aaaaa(lp2350
VtranslateY
p2351
a(lp2352
(lp2353
F0
aF0
a(lp2354
Vauto
p2355
aVauto
p2356
aF0
aF0
aF0
aF0
aaaaa(lp2357
VtranslateZ
p2358
a(lp2359
(lp2360
F0
aF0
a(lp2361
Vauto
p2362
aVauto
p2363
aF0
aF0
aF0
aF0
aaaaa(lp2364
VrotateX
p2365
a(lp2366
(lp2367
F0
aF0
a(lp2368
Vauto
p2369
aVauto
p2370
aF0
aF0
aF0
aF0
aaaaa(lp2371
VrotateY
p2372
a(lp2373
(lp2374
F0
aF0
a(lp2375
Vauto
p2376
aVauto
p2377
aF0
aF0
aF0
aF0
aaaaa(lp2378
VrotateZ
p2379
a(lp2380
(lp2381
F0
aF0
a(lp2382
Vauto
p2383
aVauto
p2384
aF0
aF0
aF0
aF0
aaaaaaaaa(lp2385
S'pinky_finger_fk_ctrl_3_r'
p2386
a(lp2387
(lp2388
Na(lp2389
(lp2390
VtranslateX
p2391
a(lp2392
(lp2393
F0
aF0
a(lp2394
Vauto
p2395
aVauto
p2396
aF0
aF0
aF0
aF0
aaaaa(lp2397
VtranslateY
p2398
a(lp2399
(lp2400
F0
aF0
a(lp2401
Vauto
p2402
aVauto
p2403
aF0
aF0
aF0
aF0
aaaaa(lp2404
VtranslateZ
p2405
a(lp2406
(lp2407
F0
aF0
a(lp2408
Vauto
p2409
aVauto
p2410
aF0
aF0
aF0
aF0
aaaaa(lp2411
VrotateX
p2412
a(lp2413
(lp2414
F0
aF0
a(lp2415
Vauto
p2416
aVauto
p2417
aF0
aF0
aF0
aF0
aaaaa(lp2418
VrotateY
p2419
a(lp2420
(lp2421
F0
aF0
a(lp2422
Vauto
p2423
aVauto
p2424
aF0
aF0
aF0
aF0
aaaaa(lp2425
VrotateZ
p2426
a(lp2427
(lp2428
F0
aF0
a(lp2429
Vauto
p2430
aVauto
p2431
aF0
aF0
aF0
aF0
aaaaaaaaa(lp2432
g2387
aa(lp2433
g2387
aa(lp2434
S'ring_finger_fk_ctrl_1_l'
p2435
a(lp2436
(lp2437
Na(lp2438
(lp2439
VtranslateX
p2440
a(lp2441
(lp2442
F0
aF0
a(lp2443
Vauto
p2444
aVauto
p2445
aF0
aF0
aF1
aF1
aaa(lp2446
F11
aF0
a(lp2447
Vauto
p2448
aVauto
p2449
aF0
aF0
aF1
aF1
aaa(lp2450
F125
aF0
a(lp2451
Vfixed
p2452
aVfixed
p2453
aF0
aF0
aF1
aF1
aaa(lp2454
F134
aF0
a(lp2455
Vfixed
p2456
aVfixed
p2457
aF0
aF0
aF1
aF1
aaaaa(lp2458
VtranslateY
p2459
a(lp2460
(lp2461
F0
aF0
a(lp2462
Vauto
p2463
aVauto
p2464
aF0
aF0
aF1
aF1
aaa(lp2465
F11
aF0
a(lp2466
Vauto
p2467
aVauto
p2468
aF0
aF0
aF1
aF1
aaa(lp2469
F125
aF0
a(lp2470
Vfixed
p2471
aVfixed
p2472
aF0
aF0
aF1
aF1
aaa(lp2473
F134
aF0
a(lp2474
Vfixed
p2475
aVfixed
p2476
aF0
aF0
aF1
aF1
aaaaa(lp2477
VtranslateZ
p2478
a(lp2479
(lp2480
F0
aF0
a(lp2481
Vauto
p2482
aVauto
p2483
aF0
aF0
aF1
aF1
aaa(lp2484
F11
aF0
a(lp2485
Vauto
p2486
aVauto
p2487
aF0
aF0
aF1
aF1
aaa(lp2488
F125
aF0
a(lp2489
Vfixed
p2490
aVfixed
p2491
aF0
aF0
aF1
aF1
aaa(lp2492
F134
aF0
a(lp2493
Vfixed
p2494
aVfixed
p2495
aF0
aF0
aF1
aF1
aaaaa(lp2496
VrotateX
p2497
a(lp2498
(lp2499
F0
aF0
a(lp2500
Vauto
p2501
aVauto
p2502
aF0
aF0
aF1
aF1
aaa(lp2503
F11
aF0
a(lp2504
Vauto
p2505
aVauto
p2506
aF0
aF0
aF1
aF1
aaa(lp2507
F125
aF0
a(lp2508
Vfixed
p2509
aVfixed
p2510
aF0
aF0
aF1
aF1
aaa(lp2511
F134
aF0
a(lp2512
Vfixed
p2513
aVfixed
p2514
aF0
aF0
aF1
aF1
aaaaa(lp2515
VrotateY
p2516
a(lp2517
(lp2518
F0
aF0
a(lp2519
Vauto
p2520
aVauto
p2521
aF0
aF0
aF1
aF1
aaa(lp2522
F11
aF0
a(lp2523
Vauto
p2524
aVauto
p2525
aF0
aF0
aF1
aF1
aaa(lp2526
F125
aF0
a(lp2527
Vfixed
p2528
aVfixed
p2529
aF0
aF0
aF1
aF1
aaa(lp2530
F134
aF0
a(lp2531
Vfixed
p2532
aVfixed
p2533
aF0
aF0
aF1
aF1
aaaaa(lp2534
VrotateZ
p2535
a(lp2536
(lp2537
F0
aF0
a(lp2538
Vauto
p2539
aVauto
p2540
aF0
aF0
aF1
aF1
aaa(lp2541
F11
aF14.946412856156448
a(lp2542
Vauto
p2543
aVauto
p2544
aF0
aF0
aF1
aF1
aaa(lp2545
F125
aF14.946412856156448
a(lp2546
Vfixed
p2547
aVfixed
p2548
aF0
aF0
aF1
aF1
aaa(lp2549
F134
aF0
a(lp2550
Vfixed
p2551
aVfixed
p2552
aF0
aF0
aF1
aF1
aaaaa(lp2553
Vsticky
p2554
a(lp2555
(lp2556
F0
aF0
a(lp2557
Vauto
p2558
aVauto
p2559
aF0
aF0
aF1
aF1
aaa(lp2560
F11
aF0
a(lp2561
Vauto
p2562
aVauto
p2563
aF0
aF0
aF1
aF1
aaa(lp2564
F125
aF0
a(lp2565
Vfixed
p2566
aVfixed
p2567
aF0
aF0
aF1
aF1
aaa(lp2568
F134
aF0
a(lp2569
Vfixed
p2570
aVfixed
p2571
aF0
aF0
aF1
aF1
aaaaaaaaa(lp2572
S'ring_finger_fk_ctrl_1_r'
p2573
a(lp2574
(lp2575
Na(lp2576
(lp2577
VtranslateX
p2578
a(lp2579
(lp2580
F0
aF0
a(lp2581
Vauto
p2582
aVauto
p2583
aF0
aF0
aF0
aF0
aaaaa(lp2584
VtranslateY
p2585
a(lp2586
(lp2587
F0
aF0
a(lp2588
Vauto
p2589
aVauto
p2590
aF0
aF0
aF0
aF0
aaaaa(lp2591
VtranslateZ
p2592
a(lp2593
(lp2594
F0
aF0
a(lp2595
Vauto
p2596
aVauto
p2597
aF0
aF0
aF0
aF0
aaaaa(lp2598
VrotateX
p2599
a(lp2600
(lp2601
F0
aF0
a(lp2602
Vauto
p2603
aVauto
p2604
aF0
aF0
aF0
aF0
aaaaa(lp2605
VrotateY
p2606
a(lp2607
(lp2608
F0
aF0
a(lp2609
Vauto
p2610
aVauto
p2611
aF0
aF0
aF0
aF0
aaaaa(lp2612
VrotateZ
p2613
a(lp2614
(lp2615
F0
aF85.18557081068785
a(lp2616
Vauto
p2617
aVauto
p2618
aF0
aF0
aF0
aF0
aaaaa(lp2619
Vsticky
p2620
a(lp2621
(lp2622
F0
aF0
a(lp2623
Vauto
p2624
aVauto
p2625
aF0
aF0
aF0
aF0
aaaaaaaaa(lp2626
S'ring_finger_fk_ctrl_2_l'
p2627
a(lp2628
(lp2629
Na(lp2630
(lp2631
VtranslateX
p2632
a(lp2633
(lp2634
F0
aF0
a(lp2635
Vauto
p2636
aVauto
p2637
aF0
aF0
aF0
aF0
aaaaa(lp2638
VtranslateY
p2639
a(lp2640
(lp2641
F0
aF0
a(lp2642
Vauto
p2643
aVauto
p2644
aF0
aF0
aF0
aF0
aaaaa(lp2645
VtranslateZ
p2646
a(lp2647
(lp2648
F0
aF0
a(lp2649
Vauto
p2650
aVauto
p2651
aF0
aF0
aF0
aF0
aaaaa(lp2652
VrotateX
p2653
a(lp2654
(lp2655
F0
aF0
a(lp2656
Vauto
p2657
aVauto
p2658
aF0
aF0
aF0
aF0
aaaaa(lp2659
VrotateY
p2660
a(lp2661
(lp2662
F0
aF0
a(lp2663
Vauto
p2664
aVauto
p2665
aF0
aF0
aF0
aF0
aaaaa(lp2666
VrotateZ
p2667
a(lp2668
(lp2669
F0
aF0
a(lp2670
Vauto
p2671
aVauto
p2672
aF0
aF0
aF0
aF0
aaaaaaaaa(lp2673
S'ring_finger_fk_ctrl_2_r'
p2674
a(lp2675
(lp2676
Na(lp2677
(lp2678
VtranslateX
p2679
a(lp2680
(lp2681
F0
aF0
a(lp2682
Vauto
p2683
aVauto
p2684
aF0
aF0
aF0
aF0
aaaaa(lp2685
VtranslateY
p2686
a(lp2687
(lp2688
F0
aF0
a(lp2689
Vauto
p2690
aVauto
p2691
aF0
aF0
aF0
aF0
aaaaa(lp2692
VtranslateZ
p2693
a(lp2694
(lp2695
F0
aF0
a(lp2696
Vauto
p2697
aVauto
p2698
aF0
aF0
aF0
aF0
aaaaa(lp2699
VrotateX
p2700
a(lp2701
(lp2702
F0
aF0
a(lp2703
Vauto
p2704
aVauto
p2705
aF0
aF0
aF0
aF0
aaaaa(lp2706
VrotateY
p2707
a(lp2708
(lp2709
F0
aF0
a(lp2710
Vauto
p2711
aVauto
p2712
aF0
aF0
aF0
aF0
aaaaa(lp2713
VrotateZ
p2714
a(lp2715
(lp2716
F0
aF0
a(lp2717
Vauto
p2718
aVauto
p2719
aF0
aF0
aF0
aF0
aaaaaaaaa(lp2720
S'ring_finger_fk_ctrl_3_l'
p2721
a(lp2722
(lp2723
Na(lp2724
(lp2725
VtranslateX
p2726
a(lp2727
(lp2728
F0
aF0
a(lp2729
Vauto
p2730
aVauto
p2731
aF0
aF0
aF1
aF1
aaa(lp2732
F11
aF0
a(lp2733
Vauto
p2734
aVauto
p2735
aF0
aF0
aF1
aF1
aaa(lp2736
F125
aF0
a(lp2737
Vfixed
p2738
aVfixed
p2739
aF0
aF0
aF1
aF1
aaa(lp2740
F134
aF0
a(lp2741
Vfixed
p2742
aVfixed
p2743
aF0
aF0
aF1
aF1
aaaaa(lp2744
VtranslateY
p2745
a(lp2746
(lp2747
F0
aF0
a(lp2748
Vauto
p2749
aVauto
p2750
aF0
aF0
aF1
aF1
aaa(lp2751
F11
aF0
a(lp2752
Vauto
p2753
aVauto
p2754
aF0
aF0
aF1
aF1
aaa(lp2755
F125
aF0
a(lp2756
Vfixed
p2757
aVfixed
p2758
aF0
aF0
aF1
aF1
aaa(lp2759
F134
aF0
a(lp2760
Vfixed
p2761
aVfixed
p2762
aF0
aF0
aF1
aF1
aaaaa(lp2763
VtranslateZ
p2764
a(lp2765
(lp2766
F0
aF0
a(lp2767
Vauto
p2768
aVauto
p2769
aF0
aF0
aF1
aF1
aaa(lp2770
F11
aF0
a(lp2771
Vauto
p2772
aVauto
p2773
aF0
aF0
aF1
aF1
aaa(lp2774
F125
aF0
a(lp2775
Vfixed
p2776
aVfixed
p2777
aF0
aF0
aF1
aF1
aaa(lp2778
F134
aF0
a(lp2779
Vfixed
p2780
aVfixed
p2781
aF0
aF0
aF1
aF1
aaaaa(lp2782
VrotateX
p2783
a(lp2784
(lp2785
F0
aF0
a(lp2786
Vauto
p2787
aVauto
p2788
aF0
aF0
aF1
aF1
aaa(lp2789
F11
aF-2.434438309478431
a(lp2790
Vauto
p2791
aVauto
p2792
aF0
aF0
aF1
aF1
aaa(lp2793
F125
aF-2.434438309478431
a(lp2794
Vfixed
p2795
aVfixed
p2796
aF0
aF0
aF1
aF1
aaa(lp2797
F134
aF0
a(lp2798
Vfixed
p2799
aVfixed
p2800
aF0
aF0
aF1
aF1
aaaaa(lp2801
VrotateY
p2802
a(lp2803
(lp2804
F0
aF0
a(lp2805
Vauto
p2806
aVauto
p2807
aF0
aF0
aF1
aF1
aaa(lp2808
F11
aF-0.91459303334655206
a(lp2809
Vauto
p2810
aVauto
p2811
aF0
aF0
aF1
aF1
aaa(lp2812
F125
aF-0.91459303334655206
a(lp2813
Vfixed
p2814
aVfixed
p2815
aF0
aF0
aF1
aF1
aaa(lp2816
F134
aF0
a(lp2817
Vfixed
p2818
aVfixed
p2819
aF0
aF0
aF1
aF1
aaaaa(lp2820
VrotateZ
p2821
a(lp2822
(lp2823
F0
aF0
a(lp2824
Vauto
p2825
aVauto
p2826
aF0
aF0
aF1
aF1
aaa(lp2827
F11
aF9.2541862793206153
a(lp2828
Vauto
p2829
aVauto
p2830
aF0
aF0
aF1
aF1
aaa(lp2831
F125
aF9.2541862793206153
a(lp2832
Vfixed
p2833
aVfixed
p2834
aF0
aF0
aF1
aF1
aaa(lp2835
F134
aF0
a(lp2836
Vfixed
p2837
aVfixed
p2838
aF0
aF0
aF1
aF1
aaaaaaaaa(lp2839
S'ring_finger_fk_ctrl_3_r'
p2840
a(lp2841
(lp2842
Na(lp2843
(lp2844
VtranslateX
p2845
a(lp2846
(lp2847
F0
aF0
a(lp2848
Vauto
p2849
aVauto
p2850
aF0
aF0
aF0
aF0
aaaaa(lp2851
VtranslateY
p2852
a(lp2853
(lp2854
F0
aF0
a(lp2855
Vauto
p2856
aVauto
p2857
aF0
aF0
aF0
aF0
aaaaa(lp2858
VtranslateZ
p2859
a(lp2860
(lp2861
F0
aF0
a(lp2862
Vauto
p2863
aVauto
p2864
aF0
aF0
aF0
aF0
aaaaa(lp2865
VrotateX
p2866
a(lp2867
(lp2868
F0
aF0
a(lp2869
Vauto
p2870
aVauto
p2871
aF0
aF0
aF0
aF0
aaaaa(lp2872
VrotateY
p2873
a(lp2874
(lp2875
F0
aF0
a(lp2876
Vauto
p2877
aVauto
p2878
aF0
aF0
aF0
aF0
aaaaa(lp2879
VrotateZ
p2880
a(lp2881
(lp2882
F0
aF0
a(lp2883
Vauto
p2884
aVauto
p2885
aF0
aF0
aF0
aF0
aaaaaaaaa(lp2886
g2841
aa(lp2887
g2841
aa(lp2888
S'middle_finger_fk_ctrl_1_l'
p2889
a(lp2890
(lp2891
Na(lp2892
(lp2893
VtranslateX
p2894
a(lp2895
(lp2896
F0
aF0
a(lp2897
Vauto
p2898
aVauto
p2899
aF0
aF0
aF1
aF1
aaa(lp2900
F11
aF0
a(lp2901
Vauto
p2902
aVauto
p2903
aF0
aF0
aF1
aF1
aaa(lp2904
F125
aF0
a(lp2905
Vfixed
p2906
aVfixed
p2907
aF0
aF0
aF1
aF1
aaa(lp2908
F134
aF0
a(lp2909
Vfixed
p2910
aVfixed
p2911
aF0
aF0
aF1
aF1
aaaaa(lp2912
VtranslateY
p2913
a(lp2914
(lp2915
F0
aF0
a(lp2916
Vauto
p2917
aVauto
p2918
aF0
aF0
aF1
aF1
aaa(lp2919
F11
aF0
a(lp2920
Vauto
p2921
aVauto
p2922
aF0
aF0
aF1
aF1
aaa(lp2923
F125
aF0
a(lp2924
Vfixed
p2925
aVfixed
p2926
aF0
aF0
aF1
aF1
aaa(lp2927
F134
aF0
a(lp2928
Vfixed
p2929
aVfixed
p2930
aF0
aF0
aF1
aF1
aaaaa(lp2931
VtranslateZ
p2932
a(lp2933
(lp2934
F0
aF0
a(lp2935
Vauto
p2936
aVauto
p2937
aF0
aF0
aF1
aF1
aaa(lp2938
F11
aF0
a(lp2939
Vauto
p2940
aVauto
p2941
aF0
aF0
aF1
aF1
aaa(lp2942
F125
aF0
a(lp2943
Vfixed
p2944
aVfixed
p2945
aF0
aF0
aF1
aF1
aaa(lp2946
F134
aF0
a(lp2947
Vfixed
p2948
aVfixed
p2949
aF0
aF0
aF1
aF1
aaaaa(lp2950
VrotateX
p2951
a(lp2952
(lp2953
F0
aF0
a(lp2954
Vauto
p2955
aVauto
p2956
aF0
aF0
aF1
aF1
aaa(lp2957
F11
aF0
a(lp2958
Vauto
p2959
aVauto
p2960
aF0
aF0
aF1
aF1
aaa(lp2961
F125
aF0
a(lp2962
Vfixed
p2963
aVfixed
p2964
aF0
aF0
aF1
aF1
aaa(lp2965
F134
aF0
a(lp2966
Vfixed
p2967
aVfixed
p2968
aF0
aF0
aF1
aF1
aaaaa(lp2969
VrotateY
p2970
a(lp2971
(lp2972
F0
aF0
a(lp2973
Vauto
p2974
aVauto
p2975
aF0
aF0
aF1
aF1
aaa(lp2976
F11
aF0
a(lp2977
Vauto
p2978
aVauto
p2979
aF0
aF0
aF1
aF1
aaa(lp2980
F125
aF0
a(lp2981
Vfixed
p2982
aVfixed
p2983
aF0
aF0
aF1
aF1
aaa(lp2984
F134
aF0
a(lp2985
Vfixed
p2986
aVfixed
p2987
aF0
aF0
aF1
aF1
aaaaa(lp2988
VrotateZ
p2989
a(lp2990
(lp2991
F0
aF0
a(lp2992
Vauto
p2993
aVauto
p2994
aF0
aF0
aF1
aF1
aaa(lp2995
F11
aF27.85007942423119
a(lp2996
Vauto
p2997
aVauto
p2998
aF0
aF0
aF1
aF1
aaa(lp2999
F125
aF27.85007942423119
a(lp3000
Vfixed
p3001
aVfixed
p3002
aF0
aF0
aF1
aF1
aaa(lp3003
F134
aF0
a(lp3004
Vfixed
p3005
aVfixed
p3006
aF0
aF0
aF1
aF1
aaaaa(lp3007
Vsticky
p3008
a(lp3009
(lp3010
F0
aF0
a(lp3011
Vauto
p3012
aVauto
p3013
aF0
aF0
aF1
aF1
aaa(lp3014
F11
aF0
a(lp3015
Vauto
p3016
aVauto
p3017
aF0
aF0
aF1
aF1
aaa(lp3018
F125
aF0
a(lp3019
Vfixed
p3020
aVfixed
p3021
aF0
aF0
aF1
aF1
aaa(lp3022
F134
aF0
a(lp3023
Vfixed
p3024
aVfixed
p3025
aF0
aF0
aF1
aF1
aaaaaaaaa(lp3026
S'middle_finger_fk_ctrl_1_r'
p3027
a(lp3028
(lp3029
Na(lp3030
(lp3031
VtranslateX
p3032
a(lp3033
(lp3034
F0
aF0
a(lp3035
Vauto
p3036
aVauto
p3037
aF0
aF0
aF0
aF0
aaaaa(lp3038
VtranslateY
p3039
a(lp3040
(lp3041
F0
aF0
a(lp3042
Vauto
p3043
aVauto
p3044
aF0
aF0
aF0
aF0
aaaaa(lp3045
VtranslateZ
p3046
a(lp3047
(lp3048
F0
aF0
a(lp3049
Vauto
p3050
aVauto
p3051
aF0
aF0
aF0
aF0
aaaaa(lp3052
VrotateX
p3053
a(lp3054
(lp3055
F0
aF0
a(lp3056
Vauto
p3057
aVauto
p3058
aF0
aF0
aF0
aF0
aaaaa(lp3059
VrotateY
p3060
a(lp3061
(lp3062
F0
aF0
a(lp3063
Vauto
p3064
aVauto
p3065
aF0
aF0
aF0
aF0
aaaaa(lp3066
VrotateZ
p3067
a(lp3068
(lp3069
F0
aF71.604563965540748
a(lp3070
Vauto
p3071
aVauto
p3072
aF0
aF0
aF0
aF0
aaaaa(lp3073
Vsticky
p3074
a(lp3075
(lp3076
F0
aF0
a(lp3077
Vauto
p3078
aVauto
p3079
aF0
aF0
aF0
aF0
aaaaaaaaa(lp3080
S'middle_finger_fk_ctrl_2_l'
p3081
a(lp3082
(lp3083
Na(lp3084
(lp3085
VtranslateX
p3086
a(lp3087
(lp3088
F0
aF0
a(lp3089
Vauto
p3090
aVauto
p3091
aF0
aF0
aF0
aF0
aaaaa(lp3092
VtranslateY
p3093
a(lp3094
(lp3095
F0
aF0
a(lp3096
Vauto
p3097
aVauto
p3098
aF0
aF0
aF0
aF0
aaaaa(lp3099
VtranslateZ
p3100
a(lp3101
(lp3102
F0
aF0
a(lp3103
Vauto
p3104
aVauto
p3105
aF0
aF0
aF0
aF0
aaaaa(lp3106
VrotateX
p3107
a(lp3108
(lp3109
F0
aF0
a(lp3110
Vauto
p3111
aVauto
p3112
aF0
aF0
aF0
aF0
aaaaa(lp3113
VrotateY
p3114
a(lp3115
(lp3116
F0
aF0
a(lp3117
Vauto
p3118
aVauto
p3119
aF0
aF0
aF0
aF0
aaaaa(lp3120
VrotateZ
p3121
a(lp3122
(lp3123
F0
aF0
a(lp3124
Vauto
p3125
aVauto
p3126
aF0
aF0
aF0
aF0
aaaaaaaaa(lp3127
S'middle_finger_fk_ctrl_2_r'
p3128
a(lp3129
(lp3130
Na(lp3131
(lp3132
VtranslateX
p3133
a(lp3134
(lp3135
F0
aF0
a(lp3136
Vauto
p3137
aVauto
p3138
aF0
aF0
aF0
aF0
aaaaa(lp3139
VtranslateY
p3140
a(lp3141
(lp3142
F0
aF0
a(lp3143
Vauto
p3144
aVauto
p3145
aF0
aF0
aF0
aF0
aaaaa(lp3146
VtranslateZ
p3147
a(lp3148
(lp3149
F0
aF0
a(lp3150
Vauto
p3151
aVauto
p3152
aF0
aF0
aF0
aF0
aaaaa(lp3153
VrotateX
p3154
a(lp3155
(lp3156
F0
aF0
a(lp3157
Vauto
p3158
aVauto
p3159
aF0
aF0
aF0
aF0
aaaaa(lp3160
VrotateY
p3161
a(lp3162
(lp3163
F0
aF0
a(lp3164
Vauto
p3165
aVauto
p3166
aF0
aF0
aF0
aF0
aaaaa(lp3167
VrotateZ
p3168
a(lp3169
(lp3170
F0
aF0
a(lp3171
Vauto
p3172
aVauto
p3173
aF0
aF0
aF0
aF0
aaaaaaaaa(lp3174
S'middle_finger_fk_ctrl_3_l'
p3175
a(lp3176
(lp3177
Na(lp3178
(lp3179
VtranslateX
p3180
a(lp3181
(lp3182
F0
aF0
a(lp3183
Vauto
p3184
aVauto
p3185
aF0
aF0
aF0
aF0
aaaaa(lp3186
VtranslateY
p3187
a(lp3188
(lp3189
F0
aF0
a(lp3190
Vauto
p3191
aVauto
p3192
aF0
aF0
aF0
aF0
aaaaa(lp3193
VtranslateZ
p3194
a(lp3195
(lp3196
F0
aF0
a(lp3197
Vauto
p3198
aVauto
p3199
aF0
aF0
aF0
aF0
aaaaa(lp3200
VrotateX
p3201
a(lp3202
(lp3203
F0
aF0
a(lp3204
Vauto
p3205
aVauto
p3206
aF0
aF0
aF0
aF0
aaaaa(lp3207
VrotateY
p3208
a(lp3209
(lp3210
F0
aF0
a(lp3211
Vauto
p3212
aVauto
p3213
aF0
aF0
aF0
aF0
aaaaa(lp3214
VrotateZ
p3215
a(lp3216
(lp3217
F0
aF0
a(lp3218
Vauto
p3219
aVauto
p3220
aF0
aF0
aF0
aF0
aaaaaaaaa(lp3221
S'middle_finger_fk_ctrl_3_r'
p3222
a(lp3223
(lp3224
Na(lp3225
(lp3226
VtranslateX
p3227
a(lp3228
(lp3229
F0
aF0
a(lp3230
Vauto
p3231
aVauto
p3232
aF0
aF0
aF0
aF0
aaaaa(lp3233
VtranslateY
p3234
a(lp3235
(lp3236
F0
aF0
a(lp3237
Vauto
p3238
aVauto
p3239
aF0
aF0
aF0
aF0
aaaaa(lp3240
VtranslateZ
p3241
a(lp3242
(lp3243
F0
aF0
a(lp3244
Vauto
p3245
aVauto
p3246
aF0
aF0
aF0
aF0
aaaaa(lp3247
VrotateX
p3248
a(lp3249
(lp3250
F0
aF0
a(lp3251
Vauto
p3252
aVauto
p3253
aF0
aF0
aF0
aF0
aaaaa(lp3254
VrotateY
p3255
a(lp3256
(lp3257
F0
aF0
a(lp3258
Vauto
p3259
aVauto
p3260
aF0
aF0
aF0
aF0
aaaaa(lp3261
VrotateZ
p3262
a(lp3263
(lp3264
F0
aF0
a(lp3265
Vauto
p3266
aVauto
p3267
aF0
aF0
aF0
aF0
aaaaaaaaa(lp3268
g3223
aa(lp3269
g3223
aa(lp3270
S'index_finger_fk_ctrl_1_l'
p3271
a(lp3272
(lp3273
Na(lp3274
(lp3275
VtranslateX
p3276
a(lp3277
(lp3278
F0
aF0
a(lp3279
Vauto
p3280
aVauto
p3281
aF0
aF0
aF1
aF1
aaa(lp3282
F11
aF0
a(lp3283
Vauto
p3284
aVauto
p3285
aF0
aF0
aF1
aF1
aaa(lp3286
F125
aF0
a(lp3287
Vfixed
p3288
aVfixed
p3289
aF0
aF0
aF1
aF1
aaa(lp3290
F134
aF0
a(lp3291
Vfixed
p3292
aVfixed
p3293
aF0
aF0
aF1
aF1
aaaaa(lp3294
VtranslateY
p3295
a(lp3296
(lp3297
F0
aF0
a(lp3298
Vauto
p3299
aVauto
p3300
aF0
aF0
aF1
aF1
aaa(lp3301
F11
aF0
a(lp3302
Vauto
p3303
aVauto
p3304
aF0
aF0
aF1
aF1
aaa(lp3305
F125
aF0
a(lp3306
Vfixed
p3307
aVfixed
p3308
aF0
aF0
aF1
aF1
aaa(lp3309
F134
aF0
a(lp3310
Vfixed
p3311
aVfixed
p3312
aF0
aF0
aF1
aF1
aaaaa(lp3313
VtranslateZ
p3314
a(lp3315
(lp3316
F0
aF0
a(lp3317
Vauto
p3318
aVauto
p3319
aF0
aF0
aF1
aF1
aaa(lp3320
F11
aF0
a(lp3321
Vauto
p3322
aVauto
p3323
aF0
aF0
aF1
aF1
aaa(lp3324
F125
aF0
a(lp3325
Vfixed
p3326
aVfixed
p3327
aF0
aF0
aF1
aF1
aaa(lp3328
F134
aF0
a(lp3329
Vfixed
p3330
aVfixed
p3331
aF0
aF0
aF1
aF1
aaaaa(lp3332
VrotateX
p3333
a(lp3334
(lp3335
F0
aF0
a(lp3336
Vauto
p3337
aVauto
p3338
aF0
aF0
aF1
aF1
aaa(lp3339
F11
aF0
a(lp3340
Vauto
p3341
aVauto
p3342
aF0
aF0
aF1
aF1
aaa(lp3343
F125
aF0
a(lp3344
Vfixed
p3345
aVfixed
p3346
aF0
aF0
aF1
aF1
aaa(lp3347
F134
aF0
a(lp3348
Vfixed
p3349
aVfixed
p3350
aF0
aF0
aF1
aF1
aaaaa(lp3351
VrotateY
p3352
a(lp3353
(lp3354
F0
aF0
a(lp3355
Vauto
p3356
aVauto
p3357
aF0
aF0
aF1
aF1
aaa(lp3358
F11
aF0
a(lp3359
Vauto
p3360
aVauto
p3361
aF0
aF0
aF1
aF1
aaa(lp3362
F125
aF0
a(lp3363
Vfixed
p3364
aVfixed
p3365
aF0
aF0
aF1
aF1
aaa(lp3366
F134
aF0
a(lp3367
Vfixed
p3368
aVfixed
p3369
aF0
aF0
aF1
aF1
aaaaa(lp3370
VrotateZ
p3371
a(lp3372
(lp3373
F0
aF0
a(lp3374
Vauto
p3375
aVauto
p3376
aF0
aF0
aF1
aF1
aaa(lp3377
F11
aF17.499620867968726
a(lp3378
Vauto
p3379
aVauto
p3380
aF0
aF0
aF1
aF1
aaa(lp3381
F125
aF17.499620867968726
a(lp3382
Vfixed
p3383
aVfixed
p3384
aF0
aF0
aF1
aF1
aaa(lp3385
F134
aF0
a(lp3386
Vfixed
p3387
aVfixed
p3388
aF0
aF0
aF1
aF1
aaaaa(lp3389
Vsticky
p3390
a(lp3391
(lp3392
F0
aF0
a(lp3393
Vauto
p3394
aVauto
p3395
aF0
aF0
aF1
aF1
aaa(lp3396
F11
aF0
a(lp3397
Vauto
p3398
aVauto
p3399
aF0
aF0
aF1
aF1
aaa(lp3400
F125
aF0
a(lp3401
Vfixed
p3402
aVfixed
p3403
aF0
aF0
aF1
aF1
aaa(lp3404
F134
aF0
a(lp3405
Vfixed
p3406
aVfixed
p3407
aF0
aF0
aF1
aF1
aaaaaaaaa(lp3408
S'index_finger_fk_ctrl_1_r'
p3409
a(lp3410
(lp3411
Na(lp3412
(lp3413
VtranslateX
p3414
a(lp3415
(lp3416
F0
aF0
a(lp3417
Vauto
p3418
aVauto
p3419
aF0
aF0
aF0
aF0
aaaaa(lp3420
VtranslateY
p3421
a(lp3422
(lp3423
F0
aF0
a(lp3424
Vauto
p3425
aVauto
p3426
aF0
aF0
aF0
aF0
aaaaa(lp3427
VtranslateZ
p3428
a(lp3429
(lp3430
F0
aF0
a(lp3431
Vauto
p3432
aVauto
p3433
aF0
aF0
aF0
aF0
aaaaa(lp3434
VrotateX
p3435
a(lp3436
(lp3437
F0
aF0
a(lp3438
Vauto
p3439
aVauto
p3440
aF0
aF0
aF0
aF0
aaaaa(lp3441
VrotateY
p3442
a(lp3443
(lp3444
F0
aF0
a(lp3445
Vauto
p3446
aVauto
p3447
aF0
aF0
aF0
aF0
aaaaa(lp3448
VrotateZ
p3449
a(lp3450
(lp3451
F0
aF66.071492327287331
a(lp3452
Vauto
p3453
aVauto
p3454
aF0
aF0
aF0
aF0
aaaaa(lp3455
Vsticky
p3456
a(lp3457
(lp3458
F0
aF0
a(lp3459
Vauto
p3460
aVauto
p3461
aF0
aF0
aF0
aF0
aaaaaaaaa(lp3462
S'index_finger_fk_ctrl_2_l'
p3463
a(lp3464
(lp3465
Na(lp3466
(lp3467
VtranslateX
p3468
a(lp3469
(lp3470
F0
aF0
a(lp3471
Vauto
p3472
aVauto
p3473
aF0
aF0
aF1
aF1
aaa(lp3474
F11
aF0
a(lp3475
Vauto
p3476
aVauto
p3477
aF0
aF0
aF1
aF1
aaa(lp3478
F125
aF0
a(lp3479
Vfixed
p3480
aVfixed
p3481
aF0
aF0
aF1
aF1
aaa(lp3482
F134
aF0
a(lp3483
Vfixed
p3484
aVfixed
p3485
aF0
aF0
aF1
aF1
aaaaa(lp3486
VtranslateY
p3487
a(lp3488
(lp3489
F0
aF0
a(lp3490
Vauto
p3491
aVauto
p3492
aF0
aF0
aF1
aF1
aaa(lp3493
F11
aF0
a(lp3494
Vauto
p3495
aVauto
p3496
aF0
aF0
aF1
aF1
aaa(lp3497
F125
aF0
a(lp3498
Vfixed
p3499
aVfixed
p3500
aF0
aF0
aF1
aF1
aaa(lp3501
F134
aF0
a(lp3502
Vfixed
p3503
aVfixed
p3504
aF0
aF0
aF1
aF1
aaaaa(lp3505
VtranslateZ
p3506
a(lp3507
(lp3508
F0
aF0
a(lp3509
Vauto
p3510
aVauto
p3511
aF0
aF0
aF1
aF1
aaa(lp3512
F11
aF0
a(lp3513
Vauto
p3514
aVauto
p3515
aF0
aF0
aF1
aF1
aaa(lp3516
F125
aF0
a(lp3517
Vfixed
p3518
aVfixed
p3519
aF0
aF0
aF1
aF1
aaa(lp3520
F134
aF0
a(lp3521
Vfixed
p3522
aVfixed
p3523
aF0
aF0
aF1
aF1
aaaaa(lp3524
VrotateX
p3525
a(lp3526
(lp3527
F0
aF0
a(lp3528
Vauto
p3529
aVauto
p3530
aF0
aF0
aF1
aF1
aaa(lp3531
F11
aF0
a(lp3532
Vauto
p3533
aVauto
p3534
aF0
aF0
aF1
aF1
aaa(lp3535
F125
aF0
a(lp3536
Vfixed
p3537
aVfixed
p3538
aF0
aF0
aF1
aF1
aaa(lp3539
F134
aF0
a(lp3540
Vfixed
p3541
aVfixed
p3542
aF0
aF0
aF1
aF1
aaaaa(lp3543
VrotateY
p3544
a(lp3545
(lp3546
F0
aF0
a(lp3547
Vauto
p3548
aVauto
p3549
aF0
aF0
aF1
aF1
aaa(lp3550
F11
aF0
a(lp3551
Vauto
p3552
aVauto
p3553
aF0
aF0
aF1
aF1
aaa(lp3554
F125
aF0
a(lp3555
Vfixed
p3556
aVfixed
p3557
aF0
aF0
aF1
aF1
aaa(lp3558
F134
aF0
a(lp3559
Vfixed
p3560
aVfixed
p3561
aF0
aF0
aF1
aF1
aaaaa(lp3562
VrotateZ
p3563
a(lp3564
(lp3565
F0
aF0
a(lp3566
Vauto
p3567
aVauto
p3568
aF0
aF0
aF1
aF1
aaa(lp3569
F11
aF32.550972575429206
a(lp3570
Vauto
p3571
aVauto
p3572
aF0
aF0
aF1
aF1
aaa(lp3573
F125
aF32.550972575429206
a(lp3574
Vfixed
p3575
aVfixed
p3576
aF0
aF0
aF1
aF1
aaa(lp3577
F134
aF0
a(lp3578
Vfixed
p3579
aVfixed
p3580
aF0
aF0
aF1
aF1
aaaaaaaaa(lp3581
S'index_finger_fk_ctrl_2_r'
p3582
a(lp3583
(lp3584
Na(lp3585
(lp3586
VtranslateX
p3587
a(lp3588
(lp3589
F0
aF0
a(lp3590
Vauto
p3591
aVauto
p3592
aF0
aF0
aF0
aF0
aaaaa(lp3593
VtranslateY
p3594
a(lp3595
(lp3596
F0
aF0
a(lp3597
Vauto
p3598
aVauto
p3599
aF0
aF0
aF0
aF0
aaaaa(lp3600
VtranslateZ
p3601
a(lp3602
(lp3603
F0
aF0
a(lp3604
Vauto
p3605
aVauto
p3606
aF0
aF0
aF0
aF0
aaaaa(lp3607
VrotateX
p3608
a(lp3609
(lp3610
F0
aF0
a(lp3611
Vauto
p3612
aVauto
p3613
aF0
aF0
aF0
aF0
aaaaa(lp3614
VrotateY
p3615
a(lp3616
(lp3617
F0
aF0
a(lp3618
Vauto
p3619
aVauto
p3620
aF0
aF0
aF0
aF0
aaaaa(lp3621
VrotateZ
p3622
a(lp3623
(lp3624
F0
aF0
a(lp3625
Vauto
p3626
aVauto
p3627
aF0
aF0
aF0
aF0
aaaaaaaaa(lp3628
S'index_finger_fk_ctrl_3_l'
p3629
a(lp3630
(lp3631
Na(lp3632
(lp3633
VtranslateX
p3634
a(lp3635
(lp3636
F0
aF0
a(lp3637
Vauto
p3638
aVauto
p3639
aF0
aF0
aF0
aF0
aaaaa(lp3640
VtranslateY
p3641
a(lp3642
(lp3643
F0
aF0
a(lp3644
Vauto
p3645
aVauto
p3646
aF0
aF0
aF0
aF0
aaaaa(lp3647
VtranslateZ
p3648
a(lp3649
(lp3650
F0
aF0
a(lp3651
Vauto
p3652
aVauto
p3653
aF0
aF0
aF0
aF0
aaaaa(lp3654
VrotateX
p3655
a(lp3656
(lp3657
F0
aF0
a(lp3658
Vauto
p3659
aVauto
p3660
aF0
aF0
aF0
aF0
aaaaa(lp3661
VrotateY
p3662
a(lp3663
(lp3664
F0
aF0
a(lp3665
Vauto
p3666
aVauto
p3667
aF0
aF0
aF0
aF0
aaaaa(lp3668
VrotateZ
p3669
a(lp3670
(lp3671
F0
aF0
a(lp3672
Vauto
p3673
aVauto
p3674
aF0
aF0
aF0
aF0
aaaaaaaaa(lp3675
S'index_finger_fk_ctrl_3_r'
p3676
a(lp3677
(lp3678
Na(lp3679
(lp3680
VtranslateX
p3681
a(lp3682
(lp3683
F0
aF0
a(lp3684
Vauto
p3685
aVauto
p3686
aF0
aF0
aF0
aF0
aaaaa(lp3687
VtranslateY
p3688
a(lp3689
(lp3690
F0
aF0
a(lp3691
Vauto
p3692
aVauto
p3693
aF0
aF0
aF0
aF0
aaaaa(lp3694
VtranslateZ
p3695
a(lp3696
(lp3697
F0
aF0
a(lp3698
Vauto
p3699
aVauto
p3700
aF0
aF0
aF0
aF0
aaaaa(lp3701
VrotateX
p3702
a(lp3703
(lp3704
F0
aF0
a(lp3705
Vauto
p3706
aVauto
p3707
aF0
aF0
aF0
aF0
aaaaa(lp3708
VrotateY
p3709
a(lp3710
(lp3711
F0
aF0
a(lp3712
Vauto
p3713
aVauto
p3714
aF0
aF0
aF0
aF0
aaaaa(lp3715
VrotateZ
p3716
a(lp3717
(lp3718
F0
aF0
a(lp3719
Vauto
p3720
aVauto
p3721
aF0
aF0
aF0
aF0
aaaaaaaaa(lp3722
S'thumb_finger_fk_ctrl_1_l'
p3723
a(lp3724
(lp3725
Na(lp3726
(lp3727
VtranslateX
p3728
a(lp3729
(lp3730
F0
aF0
a(lp3731
Vauto
p3732
aVauto
p3733
aF0
aF0
aF1
aF1
aaa(lp3734
F11
aF0
a(lp3735
Vauto
p3736
aVauto
p3737
aF0
aF0
aF1
aF1
aaa(lp3738
F128
aF0
a(lp3739
Vfixed
p3740
aVfixed
p3741
aF0
aF0
aF1
aF1
aaa(lp3742
F142
aF0
a(lp3743
Vfixed
p3744
aVfixed
p3745
aF0
aF0
aF1
aF1
aaaaa(lp3746
VtranslateY
p3747
a(lp3748
(lp3749
F0
aF0
a(lp3750
Vauto
p3751
aVauto
p3752
aF0
aF0
aF1
aF1
aaa(lp3753
F11
aF0
a(lp3754
Vauto
p3755
aVauto
p3756
aF0
aF0
aF1
aF1
aaa(lp3757
F128
aF0
a(lp3758
Vfixed
p3759
aVfixed
p3760
aF0
aF0
aF1
aF1
aaa(lp3761
F142
aF0
a(lp3762
Vfixed
p3763
aVfixed
p3764
aF0
aF0
aF1
aF1
aaaaa(lp3765
VtranslateZ
p3766
a(lp3767
(lp3768
F0
aF0
a(lp3769
Vauto
p3770
aVauto
p3771
aF0
aF0
aF1
aF1
aaa(lp3772
F11
aF0
a(lp3773
Vauto
p3774
aVauto
p3775
aF0
aF0
aF1
aF1
aaa(lp3776
F128
aF0
a(lp3777
Vfixed
p3778
aVfixed
p3779
aF0
aF0
aF1
aF1
aaa(lp3780
F142
aF0
a(lp3781
Vfixed
p3782
aVfixed
p3783
aF0
aF0
aF1
aF1
aaaaa(lp3784
VrotateX
p3785
a(lp3786
(lp3787
F0
aF0
a(lp3788
Vauto
p3789
aVauto
p3790
aF0
aF0
aF1
aF1
aaa(lp3791
F11
aF-1.4811796143552856
a(lp3792
Vauto
p3793
aVauto
p3794
aF0
aF0
aF1
aF1
aaa(lp3795
F128
aF-1.4811796143552856
a(lp3796
Vfixed
p3797
aVfixed
p3798
aF0
aF0
aF1
aF1
aaa(lp3799
F142
aF0
a(lp3800
Vfixed
p3801
aVfixed
p3802
aF0
aF0
aF1
aF1
aaaaa(lp3803
VrotateY
p3804
a(lp3805
(lp3806
F0
aF0
a(lp3807
Vauto
p3808
aVauto
p3809
aF0
aF0
aF1
aF1
aaa(lp3810
F11
aF34.459627018899859
a(lp3811
Vauto
p3812
aVauto
p3813
aF0
aF0
aF1
aF1
aaa(lp3814
F128
aF34.459627018899859
a(lp3815
Vfixed
p3816
aVfixed
p3817
aF0
aF0
aF1
aF1
aaa(lp3818
F142
aF0
a(lp3819
Vfixed
p3820
aVfixed
p3821
aF0
aF0
aF1
aF1
aaaaa(lp3822
VrotateZ
p3823
a(lp3824
(lp3825
F0
aF0
a(lp3826
Vauto
p3827
aVauto
p3828
aF0
aF0
aF1
aF1
aaa(lp3829
F11
aF3.5081400512821395
a(lp3830
Vauto
p3831
aVauto
p3832
aF0
aF0
aF1
aF1
aaa(lp3833
F128
aF3.5081400512821395
a(lp3834
Vfixed
p3835
aVfixed
p3836
aF0
aF0
aF1
aF1
aaa(lp3837
F142
aF0
a(lp3838
Vfixed
p3839
aVfixed
p3840
aF0
aF0
aF1
aF1
aaaaa(lp3841
Vsticky
p3842
a(lp3843
(lp3844
F0
aF0
a(lp3845
Vauto
p3846
aVauto
p3847
aF0
aF0
aF1
aF1
aaa(lp3848
F11
aF0
a(lp3849
Vauto
p3850
aVauto
p3851
aF0
aF0
aF1
aF1
aaa(lp3852
F128
aF0
a(lp3853
Vfixed
p3854
aVfixed
p3855
aF0
aF0
aF1
aF1
aaa(lp3856
F142
aF0
a(lp3857
Vfixed
p3858
aVfixed
p3859
aF0
aF0
aF1
aF1
aaaaaaaaa(lp3860
S'thumb_finger_fk_ctrl_1_r'
p3861
a(lp3862
(lp3863
Na(lp3864
(lp3865
VtranslateX
p3866
a(lp3867
(lp3868
F0
aF0
a(lp3869
Vauto
p3870
aVauto
p3871
aF0
aF0
aF0
aF0
aaaaa(lp3872
VtranslateY
p3873
a(lp3874
(lp3875
F0
aF0
a(lp3876
Vauto
p3877
aVauto
p3878
aF0
aF0
aF0
aF0
aaaaa(lp3879
VtranslateZ
p3880
a(lp3881
(lp3882
F0
aF0
a(lp3883
Vauto
p3884
aVauto
p3885
aF0
aF0
aF0
aF0
aaaaa(lp3886
VrotateX
p3887
a(lp3888
(lp3889
F0
aF45.610773340182504
a(lp3890
Vauto
p3891
aVauto
p3892
aF0
aF0
aF0
aF0
aaaaa(lp3893
VrotateY
p3894
a(lp3895
(lp3896
F0
aF-1.6946242813296122
a(lp3897
Vauto
p3898
aVauto
p3899
aF0
aF0
aF0
aF0
aaaaa(lp3900
VrotateZ
p3901
a(lp3902
(lp3903
F0
aF16.515943999253423
a(lp3904
Vauto
p3905
aVauto
p3906
aF0
aF0
aF0
aF0
aaaaa(lp3907
Vsticky
p3908
a(lp3909
(lp3910
F0
aF0
a(lp3911
Vauto
p3912
aVauto
p3913
aF0
aF0
aF0
aF0
aaaaaaaaa(lp3914
S'thumb_finger_fk_ctrl_2_l'
p3915
a(lp3916
(lp3917
Na(lp3918
(lp3919
VtranslateX
p3920
a(lp3921
(lp3922
F0
aF0
a(lp3923
Vauto
p3924
aVauto
p3925
aF0
aF0
aF1
aF1
aaa(lp3926
F11
aF0
a(lp3927
Vauto
p3928
aVauto
p3929
aF0
aF0
aF1
aF1
aaa(lp3930
F125
aF0
a(lp3931
Vfixed
p3932
aVfixed
p3933
aF0
aF0
aF1
aF1
aaa(lp3934
F134
aF0
a(lp3935
Vfixed
p3936
aVfixed
p3937
aF0
aF0
aF1
aF1
aaaaa(lp3938
VtranslateY
p3939
a(lp3940
(lp3941
F0
aF0
a(lp3942
Vauto
p3943
aVauto
p3944
aF0
aF0
aF1
aF1
aaa(lp3945
F11
aF0
a(lp3946
Vauto
p3947
aVauto
p3948
aF0
aF0
aF1
aF1
aaa(lp3949
F125
aF0
a(lp3950
Vfixed
p3951
aVfixed
p3952
aF0
aF0
aF1
aF1
aaa(lp3953
F134
aF0
a(lp3954
Vfixed
p3955
aVfixed
p3956
aF0
aF0
aF1
aF1
aaaaa(lp3957
VtranslateZ
p3958
a(lp3959
(lp3960
F0
aF0
a(lp3961
Vauto
p3962
aVauto
p3963
aF0
aF0
aF1
aF1
aaa(lp3964
F11
aF0
a(lp3965
Vauto
p3966
aVauto
p3967
aF0
aF0
aF1
aF1
aaa(lp3968
F125
aF0
a(lp3969
Vfixed
p3970
aVfixed
p3971
aF0
aF0
aF1
aF1
aaa(lp3972
F134
aF0
a(lp3973
Vfixed
p3974
aVfixed
p3975
aF0
aF0
aF1
aF1
aaaaa(lp3976
VrotateX
p3977
a(lp3978
(lp3979
F0
aF0
a(lp3980
Vauto
p3981
aVauto
p3982
aF0
aF0
aF1
aF1
aaa(lp3983
F11
aF0
a(lp3984
Vauto
p3985
aVauto
p3986
aF0
aF0
aF1
aF1
aaa(lp3987
F125
aF0
a(lp3988
Vfixed
p3989
aVfixed
p3990
aF0
aF0
aF1
aF1
aaa(lp3991
F134
aF0
a(lp3992
Vfixed
p3993
aVfixed
p3994
aF0
aF0
aF1
aF1
aaaaa(lp3995
VrotateY
p3996
a(lp3997
(lp3998
F0
aF0
a(lp3999
Vauto
p4000
aVauto
p4001
aF0
aF0
aF1
aF1
aaa(lp4002
F11
aF-8.6483354110105406
a(lp4003
Vauto
p4004
aVauto
p4005
aF0
aF0
aF1
aF1
aaa(lp4006
F125
aF-8.6483354110105406
a(lp4007
Vfixed
p4008
aVfixed
p4009
aF0
aF0
aF1
aF1
aaa(lp4010
F134
aF0
a(lp4011
Vfixed
p4012
aVfixed
p4013
aF0
aF0
aF1
aF1
aaaaa(lp4014
VrotateZ
p4015
a(lp4016
(lp4017
F0
aF0
a(lp4018
Vauto
p4019
aVauto
p4020
aF0
aF0
aF1
aF1
aaa(lp4021
F11
aF0
a(lp4022
Vauto
p4023
aVauto
p4024
aF0
aF0
aF1
aF1
aaa(lp4025
F125
aF0
a(lp4026
Vfixed
p4027
aVfixed
p4028
aF0
aF0
aF1
aF1
aaa(lp4029
F134
aF0
a(lp4030
Vfixed
p4031
aVfixed
p4032
aF0
aF0
aF1
aF1
aaaaaaaaa(lp4033
S'thumb_finger_fk_ctrl_2_r'
p4034
a(lp4035
(lp4036
Na(lp4037
(lp4038
VtranslateX
p4039
a(lp4040
(lp4041
F0
aF0
a(lp4042
Vauto
p4043
aVauto
p4044
aF0
aF0
aF0
aF0
aaaaa(lp4045
VtranslateY
p4046
a(lp4047
(lp4048
F0
aF0
a(lp4049
Vauto
p4050
aVauto
p4051
aF0
aF0
aF0
aF0
aaaaa(lp4052
VtranslateZ
p4053
a(lp4054
(lp4055
F0
aF0
a(lp4056
Vauto
p4057
aVauto
p4058
aF0
aF0
aF0
aF0
aaaaa(lp4059
VrotateX
p4060
a(lp4061
(lp4062
F0
aF0
a(lp4063
Vauto
p4064
aVauto
p4065
aF0
aF0
aF0
aF0
aaaaa(lp4066
VrotateY
p4067
a(lp4068
(lp4069
F0
aF0
a(lp4070
Vauto
p4071
aVauto
p4072
aF0
aF0
aF0
aF0
aaaaa(lp4073
VrotateZ
p4074
a(lp4075
(lp4076
F0
aF0
a(lp4077
Vauto
p4078
aVauto
p4079
aF0
aF0
aF0
aF0
aaaaaaaaa(lp4080
S'thumb_finger_fk_ctrl_3_l'
p4081
a(lp4082
(lp4083
Na(lp4084
(lp4085
VtranslateX
p4086
a(lp4087
(lp4088
F0
aF0
a(lp4089
Vauto
p4090
aVauto
p4091
aF0
aF0
aF0
aF0
aaaaa(lp4092
VtranslateY
p4093
a(lp4094
(lp4095
F0
aF0
a(lp4096
Vauto
p4097
aVauto
p4098
aF0
aF0
aF0
aF0
aaaaa(lp4099
VtranslateZ
p4100
a(lp4101
(lp4102
F0
aF0
a(lp4103
Vauto
p4104
aVauto
p4105
aF0
aF0
aF0
aF0
aaaaa(lp4106
VrotateX
p4107
a(lp4108
(lp4109
F0
aF0
a(lp4110
Vauto
p4111
aVauto
p4112
aF0
aF0
aF0
aF0
aaaaa(lp4113
VrotateY
p4114
a(lp4115
(lp4116
F0
aF0
a(lp4117
Vauto
p4118
aVauto
p4119
aF0
aF0
aF0
aF0
aaaaa(lp4120
VrotateZ
p4121
a(lp4122
(lp4123
F0
aF0
a(lp4124
Vauto
p4125
aVauto
p4126
aF0
aF0
aF0
aF0
aaaaaaaaa(lp4127
S'thumb_finger_fk_ctrl_3_r'
p4128
a(lp4129
(lp4130
Na(lp4131
(lp4132
VtranslateX
p4133
a(lp4134
(lp4135
F0
aF0
a(lp4136
Vauto
p4137
aVauto
p4138
aF0
aF0
aF0
aF0
aaaaa(lp4139
VtranslateY
p4140
a(lp4141
(lp4142
F0
aF0
a(lp4143
Vauto
p4144
aVauto
p4145
aF0
aF0
aF0
aF0
aaaaa(lp4146
VtranslateZ
p4147
a(lp4148
(lp4149
F0
aF0
a(lp4150
Vauto
p4151
aVauto
p4152
aF0
aF0
aF0
aF0
aaaaa(lp4153
VrotateX
p4154
a(lp4155
(lp4156
F0
aF0
a(lp4157
Vauto
p4158
aVauto
p4159
aF0
aF0
aF0
aF0
aaaaa(lp4160
VrotateY
p4161
a(lp4162
(lp4163
F0
aF0
a(lp4164
Vauto
p4165
aVauto
p4166
aF0
aF0
aF0
aF0
aaaaa(lp4167
VrotateZ
p4168
a(lp4169
(lp4170
F0
aF0
a(lp4171
Vauto
p4172
aVauto
p4173
aF0
aF0
aF0
aF0
aaaaaaaaa(lp4174
S'index_l_ik_anim'
p4175
a(lp4176
(lp4177
Na(lp4178
aaaa(lp4179
S'index_r_ik_anim'
p4180
a(lp4181
(lp4182
Na(lp4183
aaaa(lp4184
S'middle_l_ik_anim'
p4185
a(lp4186
(lp4187
Na(lp4188
aaaa(lp4189
S'middle_r_ik_anim'
p4190
a(lp4191
(lp4192
Na(lp4193
aaaa(lp4194
S'ring_l_ik_anim'
p4195
a(lp4196
(lp4197
Na(lp4198
aaaa(lp4199
S'ring_r_ik_anim'
p4200
a(lp4201
(lp4202
Na(lp4203
aaaa(lp4204
S'pinky_l_ik_anim'
p4205
a(lp4206
(lp4207
Na(lp4208
aaaa(lp4209
S'pinky_r_ik_anim'
p4210
a(lp4211
(lp4212
Na(lp4213
aaaa(lp4214
S'thumb_l_ik_anim'
p4215
a(lp4216
(lp4217
Na(lp4218
aaaa(lp4219
S'thumb_r_ik_anim'
p4220
a(lp4221
(lp4222
Na(lp4223
aaaa(lp4224
S'index_l_poleVector'
p4225
a(lp4226
(lp4227
Na(lp4228
aaaa(lp4229
S'index_r_poleVector'
p4230
a(lp4231
(lp4232
Na(lp4233
aaaa(lp4234
S'middle_l_poleVector'
p4235
a(lp4236
(lp4237
Na(lp4238
aaaa(lp4239
S'middle_r_poleVector'
p4240
a(lp4241
(lp4242
Na(lp4243
aaaa(lp4244
S'ring_l_poleVector'
p4245
a(lp4246
(lp4247
Na(lp4248
aaaa(lp4249
S'ring_r_poleVector'
p4250
a(lp4251
(lp4252
Na(lp4253
aaaa(lp4254
S'pinky_l_poleVector'
p4255
a(lp4256
(lp4257
Na(lp4258
aaaa(lp4259
S'pinky_r_poleVector'
p4260
a(lp4261
(lp4262
Na(lp4263
aaaa(lp4264
S'thumb_l_poleVector'
p4265
a(lp4266
(lp4267
Na(lp4268
aaaa(lp4269
S'thumb_r_poleVector'
p4270
a(lp4271
(lp4272
Na(lp4273
aaaa(lp4274
S'l_global_ik_anim'
p4275
a(lp4276
(lp4277
Na(lp4278
aaaa(lp4279
S'r_global_ik_anim'
p4280
a(lp4281
(lp4282
Na(lp4283
aaaa(lp4284
S'Rig_Settings'
p4285
a(lp4286
(lp4287
Na(lp4288
(lp4289
VlArmMode
p4290
a(lp4291
(lp4292
F0
aF0
a(lp4293
Vspline
p4294
aVstep
p4295
aF0
aF0
aF1
aF0
aaaaa(lp4296
VrArmMode
p4297
a(lp4298
(lp4299
F0
aF0
a(lp4300
Vspline
p4301
aVstep
p4302
aF0
aF0
aF1
aF0
aaaaaaaaa(lp4303
VHatTip02_anim
p4304
a(lp4305
(lp4306
Na(lp4307
aaaa(lp4308
VHatTip01_anim
p4309
a(lp4310
(lp4311
Na(lp4312
(lp4313
VtranslateX
p4314
a(lp4315
(lp4316
F0
aF0
a(lp4317
Vauto
p4318
aVauto
p4319
aF0
aF0
aF1
aF1
aaa(lp4320
F106
aF0
a(lp4321
Vauto
p4322
aVauto
p4323
aF0
aF0
aF1
aF1
aaa(lp4324
F111
aF0
a(lp4325
Vauto
p4326
aVauto
p4327
aF0
aF0
aF1
aF1
aaa(lp4328
F116
aF0
a(lp4329
Vfixed
p4330
aVfixed
p4331
aF0
aF0
aF1
aF1
aaaaa(lp4332
VtranslateY
p4333
a(lp4334
(lp4335
F0
aF0
a(lp4336
Vauto
p4337
aVauto
p4338
aF0
aF0
aF1
aF1
aaa(lp4339
F106
aF0
a(lp4340
Vauto
p4341
aVauto
p4342
aF0
aF0
aF1
aF1
aaa(lp4343
F111
aF0
a(lp4344
Vauto
p4345
aVauto
p4346
aF0
aF0
aF1
aF1
aaa(lp4347
F116
aF0
a(lp4348
Vfixed
p4349
aVfixed
p4350
aF0
aF0
aF1
aF1
aaaaa(lp4351
VtranslateZ
p4352
a(lp4353
(lp4354
F0
aF0
a(lp4355
Vauto
p4356
aVauto
p4357
aF0
aF0
aF1
aF1
aaa(lp4358
F106
aF0
a(lp4359
Vauto
p4360
aVauto
p4361
aF0
aF0
aF1
aF1
aaa(lp4362
F111
aF0
a(lp4363
Vauto
p4364
aVauto
p4365
aF0
aF0
aF1
aF1
aaa(lp4366
F116
aF0
a(lp4367
Vfixed
p4368
aVfixed
p4369
aF0
aF0
aF1
aF1
aaaaa(lp4370
VrotateX
p4371
a(lp4372
(lp4373
F0
aF0
a(lp4374
Vauto
p4375
aVauto
p4376
aF0
aF0
aF1
aF1
aaa(lp4377
F106
aF0
a(lp4378
Vauto
p4379
aVauto
p4380
aF0
aF0
aF1
aF1
aaa(lp4381
F111
aF-0.54584949390912285
a(lp4382
Vauto
p4383
aVauto
p4384
aF0
aF0
aF1
aF1
aaa(lp4385
F116
aF0
a(lp4386
Vfixed
p4387
aVfixed
p4388
aF0
aF0
aF1
aF1
aaaaa(lp4389
VrotateY
p4390
a(lp4391
(lp4392
F0
aF0
a(lp4393
Vauto
p4394
aVauto
p4395
aF0
aF0
aF1
aF1
aaa(lp4396
F106
aF0
a(lp4397
Vauto
p4398
aVauto
p4399
aF0
aF0
aF1
aF1
aaa(lp4400
F111
aF1.8480991782306651
a(lp4401
Vauto
p4402
aVauto
p4403
aF0
aF0
aF1
aF1
aaa(lp4404
F116
aF0
a(lp4405
Vfixed
p4406
aVfixed
p4407
aF0
aF0
aF1
aF1
aaaaa(lp4408
VrotateZ
p4409
a(lp4410
(lp4411
F0
aF0
a(lp4412
Vauto
p4413
aVauto
p4414
aF0
aF0
aF1
aF1
aaa(lp4415
F106
aF0
a(lp4416
Vauto
p4417
aVauto
p4418
aF0
aF0
aF1
aF1
aaa(lp4419
F111
aF-1.6277357339359464
a(lp4420
Vauto
p4421
aVauto
p4422
aF0
aF0
aF1
aF1
aaa(lp4423
F116
aF0
a(lp4424
Vfixed
p4425
aVfixed
p4426
aF0
aF0
aF1
aF1
aaaaa(lp4427
VscaleX
p4428
a(lp4429
(lp4430
F0
aF1
a(lp4431
Vauto
p4432
aVauto
p4433
aF0
aF0
aF1
aF1
aaa(lp4434
F106
aF1
a(lp4435
Vauto
p4436
aVauto
p4437
aF0
aF0
aF1
aF1
aaa(lp4438
F111
aF1
a(lp4439
Vauto
p4440
aVauto
p4441
aF0
aF0
aF1
aF1
aaa(lp4442
F116
aF1
a(lp4443
Vfixed
p4444
aVfixed
p4445
aF0
aF0
aF1
aF1
aaaaa(lp4446
VscaleY
p4447
a(lp4448
(lp4449
F0
aF1
a(lp4450
Vauto
p4451
aVauto
p4452
aF0
aF0
aF1
aF1
aaa(lp4453
F106
aF1
a(lp4454
Vauto
p4455
aVauto
p4456
aF0
aF0
aF1
aF1
aaa(lp4457
F111
aF1
a(lp4458
Vauto
p4459
aVauto
p4460
aF0
aF0
aF1
aF1
aaa(lp4461
F116
aF1
a(lp4462
Vfixed
p4463
aVfixed
p4464
aF0
aF0
aF1
aF1
aaaaa(lp4465
VscaleZ
p4466
a(lp4467
(lp4468
F0
aF1
a(lp4469
Vauto
p4470
aVauto
p4471
aF0
aF0
aF1
aF1
aaa(lp4472
F106
aF1
a(lp4473
Vauto
p4474
aVauto
p4475
aF0
aF0
aF1
aF1
aaa(lp4476
F111
aF1
a(lp4477
Vauto
p4478
aVauto
p4479
aF0
aF0
aF1
aF1
aaa(lp4480
F116
aF1
a(lp4481
Vfixed
p4482
aVfixed
p4483
aF0
aF0
aF1
aF1
aaaaaaaaa(lp4484
VHatSide_l_anim
p4485
a(lp4486
(lp4487
Na(lp4488
(lp4489
VtranslateX
p4490
a(lp4491
(lp4492
F0
aF0
a(lp4493
Vauto
p4494
aVauto
p4495
aF0
aF0
aF0
aF0
aaaaa(lp4496
VtranslateY
p4497
a(lp4498
(lp4499
F0
aF0
a(lp4500
Vauto
p4501
aVauto
p4502
aF0
aF0
aF0
aF0
aaaaa(lp4503
VtranslateZ
p4504
a(lp4505
(lp4506
F0
aF0
a(lp4507
Vauto
p4508
aVauto
p4509
aF0
aF0
aF0
aF0
aaaaa(lp4510
VrotateX
p4511
a(lp4512
(lp4513
F0
aF0
a(lp4514
Vauto
p4515
aVauto
p4516
aF0
aF0
aF0
aF0
aaaaa(lp4517
VrotateY
p4518
a(lp4519
(lp4520
F0
aF0
a(lp4521
Vauto
p4522
aVauto
p4523
aF0
aF0
aF0
aF0
aaaaa(lp4524
VrotateZ
p4525
a(lp4526
(lp4527
F0
aF0
a(lp4528
Vauto
p4529
aVauto
p4530
aF0
aF0
aF0
aF0
aaaaa(lp4531
VscaleX
p4532
a(lp4533
(lp4534
F0
aF1
a(lp4535
Vauto
p4536
aVauto
p4537
aF0
aF0
aF0
aF0
aaaaa(lp4538
VscaleY
p4539
a(lp4540
(lp4541
F0
aF1
a(lp4542
Vauto
p4543
aVauto
p4544
aF0
aF0
aF0
aF0
aaaaa(lp4545
VscaleZ
p4546
a(lp4547
(lp4548
F0
aF1
a(lp4549
Vauto
p4550
aVauto
p4551
aF0
aF0
aF0
aF0
aaaaaaaaa(lp4552
VHatFront_anim
p4553
a(lp4554
(lp4555
Na(lp4556
(lp4557
VtranslateX
p4558
a(lp4559
(lp4560
F0
aF0
a(lp4561
Vauto
p4562
aVauto
p4563
aF0
aF0
aF0
aF0
aaaaa(lp4564
VtranslateY
p4565
a(lp4566
(lp4567
F0
aF0
a(lp4568
Vauto
p4569
aVauto
p4570
aF0
aF0
aF0
aF0
aaaaa(lp4571
VtranslateZ
p4572
a(lp4573
(lp4574
F0
aF0
a(lp4575
Vauto
p4576
aVauto
p4577
aF0
aF0
aF0
aF0
aaaaa(lp4578
VrotateX
p4579
a(lp4580
(lp4581
F0
aF0
a(lp4582
Vauto
p4583
aVauto
p4584
aF0
aF0
aF0
aF0
aaaaa(lp4585
VrotateY
p4586
a(lp4587
(lp4588
F0
aF0
a(lp4589
Vauto
p4590
aVauto
p4591
aF0
aF0
aF0
aF0
aaaaa(lp4592
VrotateZ
p4593
a(lp4594
(lp4595
F0
aF0
a(lp4596
Vauto
p4597
aVauto
p4598
aF0
aF0
aF0
aF0
aaaaa(lp4599
VscaleX
p4600
a(lp4601
(lp4602
F0
aF1
a(lp4603
Vauto
p4604
aVauto
p4605
aF0
aF0
aF0
aF0
aaaaa(lp4606
VscaleY
p4607
a(lp4608
(lp4609
F0
aF1
a(lp4610
Vauto
p4611
aVauto
p4612
aF0
aF0
aF0
aF0
aaaaa(lp4613
VscaleZ
p4614
a(lp4615
(lp4616
F0
aF1
a(lp4617
Vauto
p4618
aVauto
p4619
aF0
aF0
aF0
aF0
aaaaaaaaa(lp4620
VWand_anim
p4621
a(lp4622
(lp4623
Na(lp4624
aaaa(lp4625
VHatSide_r_anim
p4626
a(lp4627
(lp4628
Na(lp4629
(lp4630
VtranslateX
p4631
a(lp4632
(lp4633
F0
aF0
a(lp4634
Vauto
p4635
aVauto
p4636
aF0
aF0
aF0
aF0
aaaaa(lp4637
VtranslateY
p4638
a(lp4639
(lp4640
F0
aF0
a(lp4641
Vauto
p4642
aVauto
p4643
aF0
aF0
aF0
aF0
aaaaa(lp4644
VtranslateZ
p4645
a(lp4646
(lp4647
F0
aF0
a(lp4648
Vauto
p4649
aVauto
p4650
aF0
aF0
aF0
aF0
aaaaa(lp4651
VrotateX
p4652
a(lp4653
(lp4654
F0
aF0
a(lp4655
Vauto
p4656
aVauto
p4657
aF0
aF0
aF0
aF0
aaaaa(lp4658
VrotateY
p4659
a(lp4660
(lp4661
F0
aF0
a(lp4662
Vauto
p4663
aVauto
p4664
aF0
aF0
aF0
aF0
aaaaa(lp4665
VrotateZ
p4666
a(lp4667
(lp4668
F0
aF0
a(lp4669
Vauto
p4670
aVauto
p4671
aF0
aF0
aF0
aF0
aaaaa(lp4672
VscaleX
p4673
a(lp4674
(lp4675
F0
aF1
a(lp4676
Vauto
p4677
aVauto
p4678
aF0
aF0
aF0
aF0
aaaaa(lp4679
VscaleY
p4680
a(lp4681
(lp4682
F0
aF1
a(lp4683
Vauto
p4684
aVauto
p4685
aF0
aF0
aF0
aF0
aaaaa(lp4686
VscaleZ
p4687
a(lp4688
(lp4689
F0
aF1
a(lp4690
Vauto
p4691
aVauto
p4692
aF0
aF0
aF0
aF0
aaaaaaaaa(lp4693
VHatBack_anim
p4694
a(lp4695
(lp4696
Na(lp4697
(lp4698
VtranslateX
p4699
a(lp4700
(lp4701
F0
aF0
a(lp4702
Vauto
p4703
aVauto
p4704
aF0
aF0
aF0
aF0
aaaaa(lp4705
VtranslateY
p4706
a(lp4707
(lp4708
F0
aF0
a(lp4709
Vauto
p4710
aVauto
p4711
aF0
aF0
aF0
aF0
aaaaa(lp4712
VtranslateZ
p4713
a(lp4714
(lp4715
F0
aF0
a(lp4716
Vauto
p4717
aVauto
p4718
aF0
aF0
aF0
aF0
aaaaa(lp4719
VrotateX
p4720
a(lp4721
(lp4722
F0
aF0
a(lp4723
Vauto
p4724
aVauto
p4725
aF0
aF0
aF0
aF0
aaaaa(lp4726
VrotateY
p4727
a(lp4728
(lp4729
F0
aF0
a(lp4730
Vauto
p4731
aVauto
p4732
aF0
aF0
aF0
aF0
aaaaa(lp4733
VrotateZ
p4734
a(lp4735
(lp4736
F0
aF0
a(lp4737
Vauto
p4738
aVauto
p4739
aF0
aF0
aF0
aF0
aaaaa(lp4740
VscaleX
p4741
a(lp4742
(lp4743
F0
aF1
a(lp4744
Vauto
p4745
aVauto
p4746
aF0
aF0
aF0
aF0
aaaaa(lp4747
VscaleY
p4748
a(lp4749
(lp4750
F0
aF1
a(lp4751
Vauto
p4752
aVauto
p4753
aF0
aF0
aF0
aF0
aaaaa(lp4754
VscaleZ
p4755
a(lp4756
(lp4757
F0
aF1
a(lp4758
Vauto
p4759
aVauto
p4760
aF0
aF0
aF0
aF0
aaaaaaaaa(lp4761
VHat_anim
p4762
a(lp4763
(lp4764
Na(lp4765
(lp4766
VrotateX
p4767
a(lp4768
(lp4769
F0
aF0
a(lp4770
Vauto
p4771
aVauto
p4772
aF0
aF0
aF1
aF1
aaa(lp4773
F57
aF0
a(lp4774
Vauto
p4775
aVauto
p4776
aF0
aF0
aF1
aF1
aaa(lp4777
F65
aF-3.0846802253080345
a(lp4778
Vfixed
p4779
aVfixed
p4780
aF-21.493660777202596
aF-21.493657528502911
aF1
aF1
aaa(lp4781
F71
aF-4.177107694595394
a(lp4782
Vfixed
p4783
aVfixed
p4784
aF-0.024629676774640077
aF-0.024630099527469702
aF1
aF1
aaa(lp4785
F91
aF-4.177107694595394
a(lp4786
Vfixed
p4787
aVfixed
p4788
aF0.30156566104645294
aF0.30156547328135702
aF1
aF1
aaa(lp4789
F98
aF1.342109993583201
a(lp4790
Vfixed
p4791
aVfixed
p4792
aF34.661191018171543
aF34.66117435890817
aF1
aF1
aaa(lp4793
F101
aF2.0616462109783393
a(lp4794
Vauto
p4795
aVauto
p4796
aF0
aF0
aF1
aF1
aaa(lp4797
F106
aF0
a(lp4798
Vfixed
p4799
aVfixed
p4800
aF-51.316622952490867
aF-51.31663214452437
aF1
aF1
aaaaaaaaa(lp4801
VHatTip03_anim
p4802
a(lp4803
(lp4804
Na(lp4805
(lp4806
VtranslateX
p4807
a(lp4808
(lp4809
F0
aF7.1054273576010019e-15
a(lp4810
Vauto
p4811
aVauto
p4812
aF0
aF0
aF0
aF0
aaaaa(lp4813
VtranslateY
p4814
a(lp4815
(lp4816
F0
aF3.5527136788005009e-15
a(lp4817
Vauto
p4818
aVauto
p4819
aF0
aF0
aF0
aF0
aaaaa(lp4820
VtranslateZ
p4821
a(lp4822
(lp4823
F0
aF0
a(lp4824
Vauto
p4825
aVauto
p4826
aF0
aF0
aF0
aF0
aaaaa(lp4827
VrotateX
p4828
a(lp4829
(lp4830
F0
aF0
a(lp4831
Vauto
p4832
aVauto
p4833
aF0
aF0
aF0
aF0
aaaaa(lp4834
VrotateY
p4835
a(lp4836
(lp4837
F0
aF0
a(lp4838
Vauto
p4839
aVauto
p4840
aF0
aF0
aF0
aF0
aaaaa(lp4841
VrotateZ
p4842
a(lp4843
(lp4844
F0
aF0
a(lp4845
Vauto
p4846
aVauto
p4847
aF0
aF0
aF0
aF0
aaaaa(lp4848
VscaleX
p4849
a(lp4850
(lp4851
F0
aF1.0000000000000004
a(lp4852
Vauto
p4853
aVauto
p4854
aF0
aF0
aF0
aF0
aaaaa(lp4855
VscaleY
p4856
a(lp4857
(lp4858
F0
aF1
a(lp4859
Vauto
p4860
aVauto
p4861
aF0
aF0
aF0
aF0
aaaaa(lp4862
VscaleZ
p4863
a(lp4864
(lp4865
F0
aF1.0000000000000002
a(lp4866
Vauto
p4867
aVauto
p4868
aF0
aF0
aF0
aF0
aaaaaaaaa(lp4869
VHatBack_anim_space_switcher
p4870
a(lp4871
(lp4872
Na(lp4873
aaaa(lp4874
VHatFront_anim_space_switcher
p4875
a(lp4876
(lp4877
Na(lp4878
aaaa(lp4879
VHatSide_l_anim_space_switcher
p4880
a(lp4881
(lp4882
Na(lp4883
aaaa(lp4884
VHatSide_r_anim_space_switcher
p4885
a(lp4886
(lp4887
Na(lp4888
aaaa(lp4889
VHatTip01_anim_space_switcher
p4890
a(lp4891
(lp4892
Na(lp4893
aaaa(lp4894
VHatTip02_anim_space_switcher
p4895
a(lp4896
(lp4897
Na(lp4898
aaaa(lp4899
VHatTip03_anim_space_switcher
p4900
a(lp4901
(lp4902
Na(lp4903
aaaa(lp4904
VHat_anim_space_switcher
p4905
a(lp4906
(lp4907
Na(lp4908
aaaa(lp4909
VWand_anim_space_switcher
p4910
a(lp4911
(lp4912
Na(lp4913
aaaa(lp4914
Vbody_anim_space_switcher
p4915
a(lp4916
(lp4917
Na(lp4918
aaaa(lp4919
Vchest_ik_anim_space_switcher
p4920
a(lp4921
(lp4922
Na(lp4923
aaaa(lp4924
Vik_elbow_l_anim_space_switcher
p4925
a(lp4926
(lp4927
Na(lp4928
aaaa(lp4929
Vik_elbow_r_anim_space_switcher
p4930
a(lp4931
(lp4932
Na(lp4933
aaaa(lp4934
Vik_foot_anim_l_space_switcher
p4935
a(lp4936
(lp4937
Na(lp4938
aaaa(lp4939
Vik_foot_anim_r_space_switcher
p4940
a(lp4941
(lp4942
Na(lp4943
aaaa(lp4944
Vik_wrist_l_anim_space_switcher
p4945
a(lp4946
(lp4947
Na(lp4948
aaaa(lp4949
Vik_wrist_r_anim_space_switcher
p4950
a(lp4951
(lp4952
Na(lp4953
aaaa(lp4954
Vl_global_ik_anim_space_switcher
p4955
a(lp4956
(lp4957
Na(lp4958
aaaa(lp4959
Vmaster_anim_space_switcher
p4960
a(lp4961
(lp4962
Na(lp4963
aaaa(lp4964
Vr_global_ik_anim_space_switcher
p4965
a(lp4966
(lp4967
Na(lp4968
aaaa(lp4969
Vspine_01_space_switcher
p4970
a(lp4971
(lp4972
Na(lp4973
aaaa(lp4974
S'chest_ik_world_aligned'
p4975
a(lp4976
(lp4977
Na(lp4978
aaaa(lp4979
S'fk_orient_world_loc_l'
p4980
a(lp4981
(lp4982
Na(lp4983
aaaa(lp4984
S'fk_orient_world_loc_r'
p4985
a(lp4986
(lp4987
Na(lp4988
aaaa(lp4989
S'fk_orient_body_loc_l'
p4990
a(lp4991
(lp4992
Na(lp4993
aaaa(lp4994
S'fk_orient_body_loc_r'
p4995
a(lp4996
(lp4997
Na(lp4998
aaaa(lp4999
S'head_fk_orient_neck'
p5000
a(lp5001
(lp5002
Na(lp5003
aaaa(lp5004
S'head_fk_orient_shoulder'
p5005
a(lp5006
(lp5007
Na(lp5008
aaaa(lp5009
S'head_fk_orient_body'
p5010
a(lp5011
(lp5012
Na(lp5013
aaaa(lp5014
S'head_fk_orient_world'
p5015
a(lp5016
(lp5017
Na(lp5018
aaaa.