(lp1
(lp2
Vfk_arm_r_anim
p3
a(lp4
VtranslateX
p5
aVtranslateY
p6
aVtranslateZ
p7
aVrotateX
p8
aVrotateY
p9
aVrotateZ
p10
aaF0
aF0
aF0
aF7.7081537630387844
aF-1.3867448257488655
aF0.028777691140309144
aa(lp11
Vfk_elbow_r_anim
p12
a(lp13
VtranslateX
p14
aVtranslateY
p15
aVtranslateZ
p16
aVrotateX
p17
aVrotateY
p18
aVrotateZ
p19
aaF0
aF0
aF0
aF-3.695642215084558
aF1.5849060166293656
aF-0.21409548772146905
aa(lp20
Vclavicle_r_anim
p21
a(lp22
VtranslateX
p23
aVtranslateY
p24
aVtranslateZ
p25
aVrotateX
p26
aVrotateY
p27
aVrotateZ
p28
aVautoShoulders
p29
aaF0
aF0
aF0
aF0
aF-7.7469999999999999
aF0
aF0
aa(lp30
Vupperarm_r_twist_anim
p31
a(lp32
VtranslateX
p33
aVtranslateY
p34
aVtranslateZ
p35
aVrotateX
p36
aVrotateY
p37
aVrotateZ
p38
aVscaleX
p39
aVscaleY
p40
aVscaleZ
p41
aaF0
aF-5.5511151231257827e-16
aF-1.4210854715202004e-14
aF0
aF0
aF0
aF1
aF1.0000000000000002
aF1.0000000000000002
aa(lp42
Vlowerarm_r_twist_anim
p43
a(lp44
VtranslateX
p45
aVtranslateY
p46
aVtranslateZ
p47
aVrotateX
p48
aVrotateY
p49
aVrotateZ
p50
aaF0
aF0
aF0
aF0
aF0
aF0
aa(lp51
Vpinky_finger_fk_ctrl_1_r
p52
a(lp53
VtranslateX
p54
aVtranslateY
p55
aVtranslateZ
p56
aVrotateX
p57
aVrotateY
p58
aVrotateZ
p59
aVsticky
p60
aaF0
aF0
aF0
aF0
aF0
aF75.036410423886238
aF0
aa(lp61
Vpinky_finger_fk_ctrl_2_r
p62
a(lp63
VtranslateX
p64
aVtranslateY
p65
aVtranslateZ
p66
aVrotateX
p67
aVrotateY
p68
aVrotateZ
p69
aaF0
aF0
aF0
aF0
aF0
aF30.842220726475038
aa(lp70
Vring_finger_fk_ctrl_2_r
p71
a(lp72
VtranslateX
p73
aVtranslateY
p74
aVtranslateZ
p75
aVrotateX
p76
aVrotateY
p77
aVrotateZ
p78
aaF0
aF0
aF0
aF0
aF0
aF18.314251469390378
aa(lp79
Vmiddle_finger_fk_ctrl_1_r
p80
a(lp81
VtranslateX
p82
aVtranslateY
p83
aVtranslateZ
p84
aVrotateX
p85
aVrotateY
p86
aVrotateZ
p87
aVsticky
p88
aaF0
aF0
aF0
aF0
aF0
aF71.604563965540748
aF0
aa(lp89
Vindex_finger_fk_ctrl_1_r
p90
a(lp91
VtranslateX
p92
aVtranslateY
p93
aVtranslateZ
p94
aVrotateX
p95
aVrotateY
p96
aVrotateZ
p97
aVsticky
p98
aaF0
aF0
aF0
aF0
aF0
aF66.071492327287331
aF0
aa(lp99
Vring_finger_fk_ctrl_1_r
p100
a(lp101
VtranslateX
p102
aVtranslateY
p103
aVtranslateZ
p104
aVrotateX
p105
aVrotateY
p106
aVrotateZ
p107
aVsticky
p108
aaF0
aF0
aF0
aF0
aF0
aF85.18557081068785
aF0
aa(lp109
Vthumb_finger_fk_ctrl_3_r
p110
a(lp111
VtranslateX
p112
aVtranslateY
p113
aVtranslateZ
p114
aVrotateX
p115
aVrotateY
p116
aVrotateZ
p117
aaF0
aF0
aF0
aF18.969554658142997
aF-2.468590800257799
aF48.769260361564655
aa(lp118
VWand_anim
p119
a(lp120
VtranslateX
p121
aVtranslateY
p122
aVtranslateZ
p123
aVrotateX
p124
aVrotateY
p125
aVrotateZ
p126
aVscaleX
p127
aVscaleY
p128
aVscaleZ
p129
aaF3.6233103482548259
aF17.428054197349923
aF-8.4512776168546964
aF93.846799232791412
aF153.66659613248052
aF0.1300971126451646
aF1
aF1
aF1
aa.