(lp1
(lp2
S'fk_clavicle_r_anim'
p3
a(lp4
VtranslateX
p5
aVtranslateY
p6
aVtranslateZ
p7
aVrotateX
p8
aVrotateY
p9
aVrotateZ
p10
aaF0
aF0
aF0
aF0
aF0
aF0
aa(lp11
S'fk_clavicle_l_anim'
p12
a(lp13
VtranslateX
p14
aVtranslateY
p15
aVtranslateZ
p16
aVrotateX
p17
aVrotateY
p18
aVrotateZ
p19
aaF0
aF0
aF0
aF0
aF0
aF0
aa(lp20
S'head_fk_anim'
p21
a(lp22
VtranslateX
p23
aVtranslateY
p24
aVtranslateZ
p25
aVrotateX
p26
aVrotateY
p27
aVrotateZ
p28
aVscaleX
p29
aVscaleY
p30
aVscaleZ
p31
aVfkOrientation
p32
aaF0
aF0
aF0
aF0
aF0
aF0
aF1
aF1
aF1
aI0
aa(lp33
S'neck_01_fk_anim'
p34
a(lp35
VtranslateX
p36
aVtranslateY
p37
aVtranslateZ
p38
aVrotateX
p39
aVrotateY
p40
aVrotateZ
p41
aVscaleX
p42
aVscaleY
p43
aVscaleZ
p44
aVfkOrientation
p45
aaF0
aF0
aF0
aF-6.1258119667413258
aF0.0022079866765864179
aF1.5136802208425504
aF1
aF1
aF1
aI0
aa(lp46
S'spine_01_anim'
p47
a(lp48
Vlength
p49
aVtranslateY
p50
aVtranslateZ
p51
aVrotateX
p52
aVrotateY
p53
aVrotateZ
p54
aaF0
aF0
aF0
aF0
aF0
aF0
aa(lp55
S'spine_02_anim'
p56
a(lp57
Vlength
p58
aVtranslateY
p59
aVtranslateZ
p60
aVrotateX
p61
aVrotateY
p62
aVrotateZ
p63
aaF0
aF0
aF0
aF0
aF0
aF0
aa(lp64
S'spine_03_anim'
p65
a(lp66
Vlength
p67
aVtranslateY
p68
aVtranslateZ
p69
aVrotateX
p70
aVrotateY
p71
aVrotateZ
p72
aaF0
aF0
aF0
aF0
aF0
aF0
aa(lp73
S'mid_ik_anim'
p74
a(lp75
VtranslateX
p76
aVtranslateY
p77
aVtranslateZ
p78
aVrotateX
p79
aVrotateY
p80
aVrotateZ
p81
aaF0
aF0
aF0
aF0
aF0
aF0
aa(lp82
S'chest_ik_anim'
p83
a(lp84
VtranslateX
p85
aVtranslateY
p86
aVtranslateZ
p87
aVrotateX
p88
aVrotateY
p89
aVrotateZ
p90
aVstretch
p91
aVsquash
p92
aVtwist_amount
p93
aVautoSpine
p94
aVrotationInfluence
p95
aaF0
aF0
aF0
aF0.034614006385741573
aF-2.2638436753297828
aF3.1803072102672338
aF0
aF0
aF1
aF0
aF0.25
aa(lp96
S'body_anim'
p97
a(lp98
VtranslateX
p99
aVtranslateY
p100
aVtranslateZ
p101
aVrotateX
p102
aVrotateY
p103
aVrotateZ
p104
aaF0.04578551239670281
aF0
aF-2.9486502568805939
aF-3.3625480229556279
aF0
aF0
aa(lp105
S'hip_anim'
p106
a(lp107
VtranslateX
p108
aVtranslateY
p109
aVtranslateZ
p110
aVrotateX
p111
aVrotateY
p112
aVrotateZ
p113
aVlCalfTwistCtrlVis
p114
aVrCalfTwistCtrlVis
p115
aVautoHips
p116
aaF0
aF1.4186858780189628
aF0
aF0
aF-0.90428726044208019
aF0
aI00
aI00
aF0
aa(lp117
S'clavicle_l_anim'
p118
a(lp119
VtranslateX
p120
aVtranslateY
p121
aVtranslateZ
p122
aVrotateX
p123
aVrotateY
p124
aVrotateZ
p125
aVautoShoulders
p126
aaF0.076991364526405759
aF0
aF0.54667058337173446
aF0
aF5.7870413308406849
aF0
aF0
aa(lp127
S'clavicle_r_anim'
p128
a(lp129
VtranslateX
p130
aVtranslateY
p131
aVtranslateZ
p132
aVrotateX
p133
aVrotateY
p134
aVrotateZ
p135
aVautoShoulders
p136
aaF-0.048730974513376268
aF0
aF0.43656825768652097
aF0
aF-4.6334811919271148
aF0
aF0
aa(lp137
S'fk_arm_l_anim'
p138
a(lp139
VtranslateX
p140
aVtranslateY
p141
aVtranslateZ
p142
aVrotateX
p143
aVrotateY
p144
aVrotateZ
p145
aaF0
aF0
aF0
aF8.6682886561511836
aF27.172409313269373
aF4.1990496598680398
aa(lp146
S'fk_arm_r_anim'
p147
a(lp148
VtranslateX
p149
aVtranslateY
p150
aVtranslateZ
p151
aVrotateX
p152
aVrotateY
p153
aVrotateZ
p154
aaF0
aF0
aF0
aF8.7984690902426603
aF28.762223526396333
aF4.4757967259617963
aa(lp155
S'fk_elbow_l_anim'
p156
a(lp157
VtranslateX
p158
aVtranslateY
p159
aVtranslateZ
p160
aVrotateX
p161
aVrotateY
p162
aVrotateZ
p163
aaF0
aF0
aF0
aF-2.9594761222354715
aF1.5823203535126678
aF-0.1896984870424695
aa(lp164
S'fk_elbow_r_anim'
p165
a(lp166
VtranslateX
p167
aVtranslateY
p168
aVtranslateZ
p169
aVrotateX
p170
aVrotateY
p171
aVrotateZ
p172
aaF0
aF0
aF0
aF-3.6956422150845576
aF1.5849060166293654
aF-0.21409548772147224
aa(lp173
S'fk_wrist_l_anim'
p174
a(lp175
VtranslateX
p176
aVtranslateY
p177
aVtranslateZ
p178
aVrotateX
p179
aVrotateY
p180
aVrotateZ
p181
aaF0
aF0
aF0
aF-8.2713945760046101
aF0.43740600480431019
aF-1.3622059043972121
aa(lp182
S'fk_wrist_r_anim'
p183
a(lp184
VtranslateX
p185
aVtranslateY
p186
aVtranslateZ
p187
aVrotateX
p188
aVrotateY
p189
aVrotateZ
p190
aaF0
aF0
aF0
aF-7.5486245719903025
aF0.38908356204624822
aF-1.356404922970051
aa(lp191
S'ik_elbow_l_anim'
p192
a(lp193
VtranslateX
p194
aVtranslateY
p195
aVtranslateZ
p196
aaF0
aF0
aF0
aa(lp197
S'ik_elbow_r_anim'
p198
a(lp199
VtranslateX
p200
aVtranslateY
p201
aVtranslateZ
p202
aaF0
aF0
aF0
aa(lp203
S'ik_wrist_l_anim'
p204
a(lp205
VtranslateX
p206
aVtranslateY
p207
aVtranslateZ
p208
aVrotateX
p209
aVrotateY
p210
aVrotateZ
p211
aVstretch
p212
aVsquash
p213
aVstretchBias
p214
aVside
p215
aVmid_bend
p216
aVmid_swivel
p217
aVtip_pivot
p218
aVtip_swivel
p219
aaF0
aF0
aF0
aF0
aF0
aF0
aF0
aF0
aF0
aF0
aF0
aF0
aF0
aF0
aa(lp220
S'ik_wrist_r_anim'
p221
a(lp222
VtranslateX
p223
aVtranslateY
p224
aVtranslateZ
p225
aVrotateX
p226
aVrotateY
p227
aVrotateZ
p228
aVstretch
p229
aVsquash
p230
aVstretchBias
p231
aVside
p232
aVmid_bend
p233
aVmid_swivel
p234
aVtip_pivot
p235
aVtip_swivel
p236
aaF0
aF0
aF0
aF0
aF0
aF0
aF0
aF0
aF0
aF0
aF0
aF0
aF0
aF0
aa(lp237
S'fk_thigh_l_anim'
p238
a(lp239
VrotateX
p240
aVrotateY
p241
aVrotateZ
p242
aaF0
aF0
aF0
aa(lp243
S'fk_thigh_r_anim'
p244
a(lp245
VrotateX
p246
aVrotateY
p247
aVrotateZ
p248
aaF0
aF0
aF0
aa(lp249
S'fk_calf_l_anim'
p250
a(lp251
VrotateX
p252
aVrotateY
p253
aVrotateZ
p254
aaF0
aF0
aF0
aa(lp255
S'fk_calf_r_anim'
p256
a(lp257
VrotateX
p258
aVrotateY
p259
aVrotateZ
p260
aaF0
aF0
aF0
aa(lp261
S'fk_foot_l_anim'
p262
a(lp263
VrotateX
p264
aVrotateY
p265
aVrotateZ
p266
aaF0
aF0
aF0
aa(lp267
S'fk_foot_r_anim'
p268
a(lp269
VrotateX
p270
aVrotateY
p271
aVrotateZ
p272
aaF0
aF0
aF0
aa(lp273
S'fk_ball_l_anim'
p274
a(lp275
VrotateX
p276
aVrotateY
p277
aVrotateZ
p278
aaF0
aF0
aF0
aa(lp279
S'fk_ball_r_anim'
p280
a(lp281
VrotateX
p282
aVrotateY
p283
aVrotateZ
p284
aaF0
aF0
aF0
aa(lp285
S'ik_foot_anim_l'
p286
a(lp287
VtranslateX
p288
aVtranslateY
p289
aVtranslateZ
p290
aVrotateX
p291
aVrotateY
p292
aVrotateZ
p293
aVknee_twist
p294
aVstretch
p295
aVsquash
p296
aVtoeCtrlVis
p297
aVstretchBias
p298
aaF0
aF0
aF0
aF0
aF0
aF0
aF0
aF0
aF0
aI00
aF0
aa(lp299
S'ik_foot_anim_r'
p300
a(lp301
VtranslateX
p302
aVtranslateY
p303
aVtranslateZ
p304
aVrotateX
p305
aVrotateY
p306
aVrotateZ
p307
aVknee_twist
p308
aVstretch
p309
aVsquash
p310
aVtoeCtrlVis
p311
aVstretchBias
p312
aaF-3.0604570231037402
aF0
aF0
aF0
aF0
aF0
aF0
aF0
aF0
aI00
aF0
aa(lp313
S'heel_ctrl_l'
p314
a(lp315
VrotateX
p316
aVrotateY
p317
aVrotateZ
p318
aVheelPivot
p319
aVballPivot
p320
aaF0
aF0
aF0
aF0
aF0
aa(lp321
S'heel_ctrl_r'
p322
a(lp323
VrotateX
p324
aVrotateY
p325
aVrotateZ
p326
aVheelPivot
p327
aVballPivot
p328
aaF0
aF0
aF0
aF0
aF0
aa(lp329
S'toe_wiggle_ctrl_l'
p330
a(lp331
VrotateX
p332
aVrotateY
p333
aVrotateZ
p334
aaF0
aF0
aF0
aa(lp335
S'toe_wiggle_ctrl_r'
p336
a(lp337
VrotateX
p338
aVrotateY
p339
aVrotateZ
p340
aaF0
aF0
aF0
aa(lp341
S'toe_tip_ctrl_l'
p342
a(lp343
VrotateX
p344
aVrotateY
p345
aVrotateZ
p346
aaF0
aF0
aF0
aa(lp347
S'toe_tip_ctrl_r'
p348
a(lp349
VrotateX
p350
aVrotateY
p351
aVrotateZ
p352
aaF0
aF5.6731287379933111
aF0
aa(lp353
S'master_anim'
p354
a(lp355
VtranslateX
p356
aVtranslateY
p357
aVtranslateZ
p358
aVrotateX
p359
aVrotateY
p360
aVrotateZ
p361
aaF0
aF0
aF0
aF0
aF0
aF0
aa(lp362
S'offset_anim'
p363
a(lp364
VtranslateX
p365
aVtranslateY
p366
aVtranslateZ
p367
aVrotateX
p368
aVrotateY
p369
aVrotateZ
p370
aaF0
aF0
aF0
aF0
aF0
aF0
aa(lp371
S'root_anim'
p372
a(lp373
VtranslateX
p374
aVtranslateY
p375
aVtranslateZ
p376
aVrotateX
p377
aVrotateY
p378
aVrotateZ
p379
aaF0
aF0
aF0
aF0
aF0
aF0
aa(lp380
S'upperarm_l_twist_anim'
p381
a(lp382
VtranslateX
p383
aVtranslateY
p384
aVtranslateZ
p385
aVrotateX
p386
aVrotateY
p387
aVrotateZ
p388
aVscaleX
p389
aVscaleY
p390
aVscaleZ
p391
aaF-7.1054273576010019e-15
aF-2.2204460492503131e-16
aF1.4210854715202004e-14
aF0
aF0
aF0
aF1
aF1
aF1
aa(lp392
S'upperarm_r_twist_anim'
p393
a(lp394
VtranslateX
p395
aVtranslateY
p396
aVtranslateZ
p397
aVrotateX
p398
aVrotateY
p399
aVrotateZ
p400
aVscaleX
p401
aVscaleY
p402
aVscaleZ
p403
aaF0
aF-5.5511151231257827e-16
aF-1.4210854715202004e-14
aF0
aF0
aF0
aF1
aF1.0000000000000002
aF1.0000000000000002
aa(lp404
S'lowerarm_l_twist_anim'
p405
a(lp406
VtranslateX
p407
aVtranslateY
p408
aVtranslateZ
p409
aVrotateX
p410
aVrotateY
p411
aVrotateZ
p412
aaF0
aF0
aF0
aF0
aF0
aF0
aa(lp413
S'lowerarm_r_twist_anim'
p414
a(lp415
VtranslateX
p416
aVtranslateY
p417
aVtranslateZ
p418
aVrotateX
p419
aVrotateY
p420
aVrotateZ
p421
aaF0
aF0
aF0
aF0
aF0
aF0
aa(lp422
S'l_thigh_twist_01_anim'
p423
a(lp424
VtranslateX
p425
aVtranslateY
p426
aVtranslateZ
p427
aVrotateX
p428
aVrotateY
p429
aVrotateZ
p430
aVscaleX
p431
aVscaleY
p432
aVscaleZ
p433
aaF1.4210854715202004e-14
aF2.2204460492503131e-16
aF0
aF0
aF0
aF0
aF0.99999999999999989
aF0.99999999999999978
aF1
aa(lp434
S'r_thigh_twist_01_anim'
p435
a(lp436
VtranslateX
p437
aVtranslateY
p438
aVtranslateZ
p439
aVrotateX
p440
aVrotateY
p441
aVrotateZ
p442
aVscaleX
p443
aVscaleY
p444
aVscaleZ
p445
aaF0
aF0
aF0
aF0
aF0
aF0
aF1
aF0.99999999999999989
aF0.99999999999999978
aa(lp446
S'pinky_finger_fk_ctrl_1_l'
p447
a(lp448
VtranslateX
p449
aVtranslateY
p450
aVtranslateZ
p451
aVrotateX
p452
aVrotateY
p453
aVrotateZ
p454
aVsticky
p455
aaF0
aF0
aF0
aF0
aF0
aF0
aF0
aa(lp456
S'pinky_finger_fk_ctrl_1_r'
p457
a(lp458
VtranslateX
p459
aVtranslateY
p460
aVtranslateZ
p461
aVrotateX
p462
aVrotateY
p463
aVrotateZ
p464
aVsticky
p465
aaF0
aF0
aF0
aF0
aF0
aF75.036410423886238
aF0
aa(lp466
S'pinky_finger_fk_ctrl_2_l'
p467
a(lp468
VtranslateX
p469
aVtranslateY
p470
aVtranslateZ
p471
aVrotateX
p472
aVrotateY
p473
aVrotateZ
p474
aaF0
aF0
aF0
aF0
aF0
aF0
aa(lp475
S'pinky_finger_fk_ctrl_2_r'
p476
a(lp477
VtranslateX
p478
aVtranslateY
p479
aVtranslateZ
p480
aVrotateX
p481
aVrotateY
p482
aVrotateZ
p483
aaF0
aF0
aF0
aF0
aF0
aF0
aa(lp484
S'pinky_finger_fk_ctrl_3_l'
p485
a(lp486
VtranslateX
p487
aVtranslateY
p488
aVtranslateZ
p489
aVrotateX
p490
aVrotateY
p491
aVrotateZ
p492
aaF0
aF0
aF0
aF0
aF0
aF0
aa(lp493
S'pinky_finger_fk_ctrl_3_r'
p494
a(lp495
VtranslateX
p496
aVtranslateY
p497
aVtranslateZ
p498
aVrotateX
p499
aVrotateY
p500
aVrotateZ
p501
aaF0
aF0
aF0
aF0
aF0
aF0
aa(lp502
S'ring_finger_fk_ctrl_1_l'
p503
a(lp504
VtranslateX
p505
aVtranslateY
p506
aVtranslateZ
p507
aVrotateX
p508
aVrotateY
p509
aVrotateZ
p510
aVsticky
p511
aaF0
aF0
aF0
aF0
aF0
aF0
aF0
aa(lp512
S'ring_finger_fk_ctrl_1_r'
p513
a(lp514
VtranslateX
p515
aVtranslateY
p516
aVtranslateZ
p517
aVrotateX
p518
aVrotateY
p519
aVrotateZ
p520
aVsticky
p521
aaF0
aF0
aF0
aF0
aF0
aF85.18557081068785
aF0
aa(lp522
S'ring_finger_fk_ctrl_2_l'
p523
a(lp524
VtranslateX
p525
aVtranslateY
p526
aVtranslateZ
p527
aVrotateX
p528
aVrotateY
p529
aVrotateZ
p530
aaF0
aF0
aF0
aF0
aF0
aF0
aa(lp531
S'ring_finger_fk_ctrl_2_r'
p532
a(lp533
VtranslateX
p534
aVtranslateY
p535
aVtranslateZ
p536
aVrotateX
p537
aVrotateY
p538
aVrotateZ
p539
aaF0
aF0
aF0
aF0
aF0
aF0
aa(lp540
S'ring_finger_fk_ctrl_3_l'
p541
a(lp542
VtranslateX
p543
aVtranslateY
p544
aVtranslateZ
p545
aVrotateX
p546
aVrotateY
p547
aVrotateZ
p548
aaF0
aF0
aF0
aF0
aF0
aF0
aa(lp549
S'ring_finger_fk_ctrl_3_r'
p550
a(lp551
VtranslateX
p552
aVtranslateY
p553
aVtranslateZ
p554
aVrotateX
p555
aVrotateY
p556
aVrotateZ
p557
aaF0
aF0
aF0
aF0
aF0
aF0
aa(lp558
S'middle_finger_fk_ctrl_1_l'
p559
a(lp560
VtranslateX
p561
aVtranslateY
p562
aVtranslateZ
p563
aVrotateX
p564
aVrotateY
p565
aVrotateZ
p566
aVsticky
p567
aaF0
aF0
aF0
aF0
aF0
aF0
aF0
aa(lp568
S'middle_finger_fk_ctrl_1_r'
p569
a(lp570
VtranslateX
p571
aVtranslateY
p572
aVtranslateZ
p573
aVrotateX
p574
aVrotateY
p575
aVrotateZ
p576
aVsticky
p577
aaF0
aF0
aF0
aF0
aF0
aF71.604563965540748
aF0
aa(lp578
S'middle_finger_fk_ctrl_2_l'
p579
a(lp580
VtranslateX
p581
aVtranslateY
p582
aVtranslateZ
p583
aVrotateX
p584
aVrotateY
p585
aVrotateZ
p586
aaF0
aF0
aF0
aF0
aF0
aF0
aa(lp587
S'middle_finger_fk_ctrl_2_r'
p588
a(lp589
VtranslateX
p590
aVtranslateY
p591
aVtranslateZ
p592
aVrotateX
p593
aVrotateY
p594
aVrotateZ
p595
aaF0
aF0
aF0
aF0
aF0
aF0
aa(lp596
S'middle_finger_fk_ctrl_3_l'
p597
a(lp598
VtranslateX
p599
aVtranslateY
p600
aVtranslateZ
p601
aVrotateX
p602
aVrotateY
p603
aVrotateZ
p604
aaF0
aF0
aF0
aF0
aF0
aF0
aa(lp605
S'middle_finger_fk_ctrl_3_r'
p606
a(lp607
VtranslateX
p608
aVtranslateY
p609
aVtranslateZ
p610
aVrotateX
p611
aVrotateY
p612
aVrotateZ
p613
aaF0
aF0
aF0
aF0
aF0
aF0
aa(lp614
S'index_finger_fk_ctrl_1_l'
p615
a(lp616
VtranslateX
p617
aVtranslateY
p618
aVtranslateZ
p619
aVrotateX
p620
aVrotateY
p621
aVrotateZ
p622
aVsticky
p623
aaF0
aF0
aF0
aF0
aF0
aF0
aF0
aa(lp624
S'index_finger_fk_ctrl_1_r'
p625
a(lp626
VtranslateX
p627
aVtranslateY
p628
aVtranslateZ
p629
aVrotateX
p630
aVrotateY
p631
aVrotateZ
p632
aVsticky
p633
aaF0
aF0
aF0
aF0
aF0
aF66.071492327287331
aF0
aa(lp634
S'index_finger_fk_ctrl_2_l'
p635
a(lp636
VtranslateX
p637
aVtranslateY
p638
aVtranslateZ
p639
aVrotateX
p640
aVrotateY
p641
aVrotateZ
p642
aaF0
aF0
aF0
aF0
aF0
aF0
aa(lp643
S'index_finger_fk_ctrl_2_r'
p644
a(lp645
VtranslateX
p646
aVtranslateY
p647
aVtranslateZ
p648
aVrotateX
p649
aVrotateY
p650
aVrotateZ
p651
aaF0
aF0
aF0
aF0
aF0
aF0
aa(lp652
S'index_finger_fk_ctrl_3_l'
p653
a(lp654
VtranslateX
p655
aVtranslateY
p656
aVtranslateZ
p657
aVrotateX
p658
aVrotateY
p659
aVrotateZ
p660
aaF0
aF0
aF0
aF0
aF0
aF0
aa(lp661
S'index_finger_fk_ctrl_3_r'
p662
a(lp663
VtranslateX
p664
aVtranslateY
p665
aVtranslateZ
p666
aVrotateX
p667
aVrotateY
p668
aVrotateZ
p669
aaF0
aF0
aF0
aF0
aF0
aF0
aa(lp670
S'thumb_finger_fk_ctrl_1_l'
p671
a(lp672
VtranslateX
p673
aVtranslateY
p674
aVtranslateZ
p675
aVrotateX
p676
aVrotateY
p677
aVrotateZ
p678
aVsticky
p679
aaF0
aF0
aF0
aF0
aF0
aF0
aF0
aa(lp680
S'thumb_finger_fk_ctrl_1_r'
p681
a(lp682
VtranslateX
p683
aVtranslateY
p684
aVtranslateZ
p685
aVrotateX
p686
aVrotateY
p687
aVrotateZ
p688
aVsticky
p689
aaF0
aF0
aF0
aF45.610773340182504
aF-1.6946242813296122
aF16.515943999253423
aF0
aa(lp690
S'thumb_finger_fk_ctrl_2_l'
p691
a(lp692
VtranslateX
p693
aVtranslateY
p694
aVtranslateZ
p695
aVrotateX
p696
aVrotateY
p697
aVrotateZ
p698
aaF0
aF0
aF0
aF0
aF0
aF0
aa(lp699
S'thumb_finger_fk_ctrl_2_r'
p700
a(lp701
VtranslateX
p702
aVtranslateY
p703
aVtranslateZ
p704
aVrotateX
p705
aVrotateY
p706
aVrotateZ
p707
aaF0
aF0
aF0
aF0
aF0
aF0
aa(lp708
S'thumb_finger_fk_ctrl_3_l'
p709
a(lp710
VtranslateX
p711
aVtranslateY
p712
aVtranslateZ
p713
aVrotateX
p714
aVrotateY
p715
aVrotateZ
p716
aaF0
aF0
aF0
aF0
aF0
aF0
aa(lp717
S'thumb_finger_fk_ctrl_3_r'
p718
a(lp719
VtranslateX
p720
aVtranslateY
p721
aVtranslateZ
p722
aVrotateX
p723
aVrotateY
p724
aVrotateZ
p725
aaF0
aF0
aF0
aF0
aF0
aF0
aa(lp726
S'index_l_ik_anim'
p727
a(lp728
VtranslateX
p729
aVtranslateY
p730
aVtranslateZ
p731
aVrotateX
p732
aVrotateY
p733
aVrotateZ
p734
aVpoleVectorVis
p735
aaF0
aF0
aF0
aF0
aF0
aF0
aF0
aa(lp736
S'index_r_ik_anim'
p737
a(lp738
VtranslateX
p739
aVtranslateY
p740
aVtranslateZ
p741
aVrotateX
p742
aVrotateY
p743
aVrotateZ
p744
aVpoleVectorVis
p745
aaF0
aF0
aF0
aF0
aF0
aF0
aF0
aa(lp746
S'middle_l_ik_anim'
p747
a(lp748
VtranslateX
p749
aVtranslateY
p750
aVtranslateZ
p751
aVrotateX
p752
aVrotateY
p753
aVrotateZ
p754
aVpoleVectorVis
p755
aaF0
aF0
aF0
aF0
aF0
aF0
aF0
aa(lp756
S'middle_r_ik_anim'
p757
a(lp758
VtranslateX
p759
aVtranslateY
p760
aVtranslateZ
p761
aVrotateX
p762
aVrotateY
p763
aVrotateZ
p764
aVpoleVectorVis
p765
aaF0
aF0
aF0
aF0
aF0
aF0
aF0
aa(lp766
S'ring_l_ik_anim'
p767
a(lp768
VtranslateX
p769
aVtranslateY
p770
aVtranslateZ
p771
aVrotateX
p772
aVrotateY
p773
aVrotateZ
p774
aVpoleVectorVis
p775
aaF0
aF0
aF0
aF0
aF0
aF0
aF0
aa(lp776
S'ring_r_ik_anim'
p777
a(lp778
VtranslateX
p779
aVtranslateY
p780
aVtranslateZ
p781
aVrotateX
p782
aVrotateY
p783
aVrotateZ
p784
aVpoleVectorVis
p785
aaF0
aF0
aF0
aF0
aF0
aF0
aF0
aa(lp786
S'pinky_l_ik_anim'
p787
a(lp788
VtranslateX
p789
aVtranslateY
p790
aVtranslateZ
p791
aVrotateX
p792
aVrotateY
p793
aVrotateZ
p794
aVpoleVectorVis
p795
aaF0
aF0
aF0
aF0
aF0
aF0
aF0
aa(lp796
S'pinky_r_ik_anim'
p797
a(lp798
VtranslateX
p799
aVtranslateY
p800
aVtranslateZ
p801
aVrotateX
p802
aVrotateY
p803
aVrotateZ
p804
aVpoleVectorVis
p805
aaF0
aF0
aF0
aF0
aF0
aF0
aF0
aa(lp806
S'thumb_l_ik_anim'
p807
a(lp808
VtranslateX
p809
aVtranslateY
p810
aVtranslateZ
p811
aVrotateX
p812
aVrotateY
p813
aVrotateZ
p814
aVpoleVectorVis
p815
aaF0
aF0
aF0
aF0
aF0
aF0
aF0
aa(lp816
S'thumb_r_ik_anim'
p817
a(lp818
VtranslateX
p819
aVtranslateY
p820
aVtranslateZ
p821
aVrotateX
p822
aVrotateY
p823
aVrotateZ
p824
aVpoleVectorVis
p825
aaF0
aF0
aF0
aF0
aF0
aF0
aF0
aa(lp826
S'index_l_poleVector'
p827
a(lp828
VtranslateX
p829
aVtranslateY
p830
aVtranslateZ
p831
aVrotateX
p832
aVrotateY
p833
aVrotateZ
p834
aaF0
aF0
aF0
aF0
aF0
aF0
aa(lp835
S'index_r_poleVector'
p836
a(lp837
VtranslateX
p838
aVtranslateY
p839
aVtranslateZ
p840
aVrotateX
p841
aVrotateY
p842
aVrotateZ
p843
aaF0
aF0
aF0
aF0
aF0
aF0
aa(lp844
S'middle_l_poleVector'
p845
a(lp846
VtranslateX
p847
aVtranslateY
p848
aVtranslateZ
p849
aVrotateX
p850
aVrotateY
p851
aVrotateZ
p852
aaF0
aF0
aF0
aF0
aF0
aF0
aa(lp853
S'middle_r_poleVector'
p854
a(lp855
VtranslateX
p856
aVtranslateY
p857
aVtranslateZ
p858
aVrotateX
p859
aVrotateY
p860
aVrotateZ
p861
aaF0
aF0
aF0
aF0
aF0
aF0
aa(lp862
S'ring_l_poleVector'
p863
a(lp864
VtranslateX
p865
aVtranslateY
p866
aVtranslateZ
p867
aVrotateX
p868
aVrotateY
p869
aVrotateZ
p870
aaF0
aF0
aF0
aF0
aF0
aF0
aa(lp871
S'ring_r_poleVector'
p872
a(lp873
VtranslateX
p874
aVtranslateY
p875
aVtranslateZ
p876
aVrotateX
p877
aVrotateY
p878
aVrotateZ
p879
aaF0
aF0
aF0
aF0
aF0
aF0
aa(lp880
S'pinky_l_poleVector'
p881
a(lp882
VtranslateX
p883
aVtranslateY
p884
aVtranslateZ
p885
aVrotateX
p886
aVrotateY
p887
aVrotateZ
p888
aaF0
aF0
aF0
aF0
aF0
aF0
aa(lp889
S'pinky_r_poleVector'
p890
a(lp891
VtranslateX
p892
aVtranslateY
p893
aVtranslateZ
p894
aVrotateX
p895
aVrotateY
p896
aVrotateZ
p897
aaF0
aF0
aF0
aF0
aF0
aF0
aa(lp898
S'thumb_l_poleVector'
p899
a(lp900
VtranslateX
p901
aVtranslateY
p902
aVtranslateZ
p903
aVrotateX
p904
aVrotateY
p905
aVrotateZ
p906
aaF0
aF0
aF0
aF0
aF0
aF0
aa(lp907
S'thumb_r_poleVector'
p908
a(lp909
VtranslateX
p910
aVtranslateY
p911
aVtranslateZ
p912
aVrotateX
p913
aVrotateY
p914
aVrotateZ
p915
aaF0
aF0
aF0
aF0
aF0
aF0
aa(lp916
S'l_global_ik_anim'
p917
a(lp918
VtranslateX
p919
aVtranslateY
p920
aVtranslateZ
p921
aVrotateX
p922
aVrotateY
p923
aVrotateZ
p924
aaF0
aF0
aF0
aF0
aF0
aF0
aa(lp925
S'r_global_ik_anim'
p926
a(lp927
VtranslateX
p928
aVtranslateY
p929
aVtranslateZ
p930
aVrotateX
p931
aVrotateY
p932
aVrotateZ
p933
aaF0
aF0
aF0
aF0
aF0
aF0
aa(lp934
S'Rig_Settings'
p935
a(lp936
Vspine_ik
p937
aVspine_fk
p938
aVlLegMode
p939
aVlThighTwistAmount
p940
aVllegTwistCtrlVis
p941
aVlCalfTwistAmount
p942
aVllegTwistCtrlVisCalf
p943
aVrLegMode
p944
aVrThighTwistAmount
p945
aVrlegTwistCtrlVis
p946
aVrCalfTwistAmount
p947
aVrlegTwistCtrlVisCalf
p948
aVlFkArmOrient
p949
aVlArmMode
p950
aVlClavMode
p951
aVlUpperarmTwistAmount
p952
aVltwistCtrlVis
p953
aVltwistCtrlVisLower
p954
aVlForearmTwistAmount
p955
aVrFkArmOrient
p956
aVrArmMode
p957
aVrClavMode
p958
aVrUpperarmTwistAmount
p959
aVrtwistCtrlVis
p960
aVrtwistCtrlVisLower
p961
aVrForearmTwistAmount
p962
aaF1
aF0
aI1
aF1
aI00
aF0.5
aI00
aI1
aF1
aI00
aF0.5
aI00
aI0
aI0
aI1
aF0.90000000000000002
aI00
aI00
aF0.5
aI0
aI0
aI1
aF0.90000000000000002
aI00
aI00
aF0.5
aa(lp963
S'calf_l_twist_anim'
p964
a(lp965
VtranslateX
p966
aVtranslateY
p967
aVtranslateZ
p968
aVrotateX
p969
aVrotateY
p970
aVrotateZ
p971
aaF0
aF0
aF0
aF0
aF0
aF0
aa(lp972
S'calf_r_twist_anim'
p973
a(lp974
VtranslateX
p975
aVtranslateY
p976
aVtranslateZ
p977
aVrotateX
p978
aVrotateY
p979
aVrotateZ
p980
aaF0
aF0
aF0
aF0
aF0
aF0
aa(lp981
S'fk_orient_world_loc_l'
p982
a(lp983
Vvisibility
p984
aVtranslateX
p985
aVtranslateY
p986
aVtranslateZ
p987
aVrotateX
p988
aVrotateY
p989
aVrotateZ
p990
aVscaleX
p991
aVscaleY
p992
aVscaleZ
p993
aaI01
aF12.816049047648782
aF1.665037011430291
aF96.712687619681631
aF-9.7402227997920487
aF35.140870299251652
aF-3.1554912133174757
aF1
aF1
aF1
aa(lp994
S'fk_orient_world_loc_r'
p995
a(lp996
Vvisibility
p997
aVtranslateX
p998
aVtranslateY
p999
aVtranslateZ
p1000
aVrotateX
p1001
aVrotateY
p1002
aVrotateZ
p1003
aVscaleX
p1004
aVscaleY
p1005
aVscaleZ
p1006
aaI01
aF-12.815981836926117
aF1.6650336076072221
aF96.712782427934712
aF170.25977720020802
aF-35.140870299251695
aF3.1554912133177848
aF1
aF1
aF1
aa(lp1007
S'fk_orient_body_loc_l'
p1008
a(lp1009
Vvisibility
p1010
aVtranslateX
p1011
aVtranslateY
p1012
aVtranslateZ
p1013
aVrotateX
p1014
aVrotateY
p1015
aVrotateZ
p1016
aVscaleX
p1017
aVscaleY
p1018
aVscaleZ
p1019
aaI01
aF27.031599876485302
aF7.284193844282278
aF-12.816049047648772
aF175.73083538579829
aF54.735901102271164
aF-161.7067936943204
aF0.99999999999999989
aF1
aF1
aa(lp1020
S'fk_orient_body_loc_r'
p1021
a(lp1022
Vvisibility
p1023
aVtranslateX
p1024
aVtranslateY
p1025
aVtranslateZ
p1026
aVrotateX
p1027
aVrotateY
p1028
aVrotateZ
p1029
aVscaleX
p1030
aVscaleY
p1031
aVscaleZ
p1032
aaI01
aF27.03169275268155
aF7.2842131886105648
aF12.815981836926127
aF175.73083538579885
aF54.735901102271065
aF18.293206305680059
aF1
aF1
aF1
aa(lp1033
VHatTip02_anim
p1034
a(lp1035
VtranslateX
p1036
aVtranslateY
p1037
aVtranslateZ
p1038
aVrotateX
p1039
aVrotateY
p1040
aVrotateZ
p1041
aVscaleX
p1042
aVscaleY
p1043
aVscaleZ
p1044
aaF-1.7763568394002505e-15
aF0
aF0
aF0
aF0
aF0
aF1
aF0.99999999999999989
aF0.99999999999999989
aa(lp1045
VHatTip01_anim
p1046
a(lp1047
VtranslateX
p1048
aVtranslateY
p1049
aVtranslateZ
p1050
aVrotateX
p1051
aVrotateY
p1052
aVrotateZ
p1053
aVscaleX
p1054
aVscaleY
p1055
aVscaleZ
p1056
aaF0
aF0
aF0
aF0
aF0
aF0
aF1
aF1
aF1
aa(lp1057
VHatSide_l_anim
p1058
a(lp1059
VtranslateX
p1060
aVtranslateY
p1061
aVtranslateZ
p1062
aVrotateX
p1063
aVrotateY
p1064
aVrotateZ
p1065
aVscaleX
p1066
aVscaleY
p1067
aVscaleZ
p1068
aaF0
aF0
aF0
aF0
aF0
aF0
aF1
aF1
aF1
aa(lp1069
VHatFront_anim
p1070
a(lp1071
VtranslateX
p1072
aVtranslateY
p1073
aVtranslateZ
p1074
aVrotateX
p1075
aVrotateY
p1076
aVrotateZ
p1077
aVscaleX
p1078
aVscaleY
p1079
aVscaleZ
p1080
aaF0
aF0
aF0
aF0
aF0
aF0
aF1
aF1
aF1
aa(lp1081
VWand_anim
p1082
a(lp1083
VtranslateX
p1084
aVtranslateY
p1085
aVtranslateZ
p1086
aVrotateX
p1087
aVrotateY
p1088
aVrotateZ
p1089
aVscaleX
p1090
aVscaleY
p1091
aVscaleZ
p1092
aaF23.460143904778306
aF13.454136368826221
aF-18.061814144813482
aF105.60449189308869
aF126.6524114164684
aF10.22254424032781
aF1
aF1
aF1
aa(lp1093
VHatSide_r_anim
p1094
a(lp1095
VtranslateX
p1096
aVtranslateY
p1097
aVtranslateZ
p1098
aVrotateX
p1099
aVrotateY
p1100
aVrotateZ
p1101
aVscaleX
p1102
aVscaleY
p1103
aVscaleZ
p1104
aaF0
aF0
aF0
aF0
aF0
aF0
aF1
aF1
aF1
aa(lp1105
VHatBack_anim
p1106
a(lp1107
VtranslateX
p1108
aVtranslateY
p1109
aVtranslateZ
p1110
aVrotateX
p1111
aVrotateY
p1112
aVrotateZ
p1113
aVscaleX
p1114
aVscaleY
p1115
aVscaleZ
p1116
aaF0
aF0
aF0
aF0
aF0
aF0
aF1
aF1
aF1
aa(lp1117
VHat_anim
p1118
a(lp1119
VtranslateX
p1120
aVtranslateY
p1121
aVtranslateZ
p1122
aVrotateX
p1123
aVrotateY
p1124
aVrotateZ
p1125
aVscaleX
p1126
aVscaleY
p1127
aVscaleZ
p1128
aaF0
aF0
aF0
aF0
aF0
aF0
aF1
aF1
aF1
aa(lp1129
VHatTip03_anim
p1130
a(lp1131
VtranslateX
p1132
aVtranslateY
p1133
aVtranslateZ
p1134
aVrotateX
p1135
aVrotateY
p1136
aVrotateZ
p1137
aVscaleX
p1138
aVscaleY
p1139
aVscaleZ
p1140
aaF7.1054273576010019e-15
aF3.5527136788005009e-15
aF0
aF0
aF0
aF0
aF1.0000000000000004
aF1
aF1.0000000000000002
aa(lp1141
VHatBack_anim_space_switcher
p1142
a(lp1143
Vvisibility
p1144
aVtranslateX
p1145
aVtranslateY
p1146
aVtranslateZ
p1147
aVrotateX
p1148
aVrotateY
p1149
aVrotateZ
p1150
aVscaleX
p1151
aVscaleY
p1152
aVscaleZ
p1153
aVspace_world
p1154
aaI01
aF0
aF0
aF0
aF0
aF0
aF0
aF1
aF1
aF1
aF0
aa(lp1155
VHatFront_anim_space_switcher
p1156
a(lp1157
Vvisibility
p1158
aVtranslateX
p1159
aVtranslateY
p1160
aVtranslateZ
p1161
aVrotateX
p1162
aVrotateY
p1163
aVrotateZ
p1164
aVscaleX
p1165
aVscaleY
p1166
aVscaleZ
p1167
aVspace_world
p1168
aaI01
aF6.3108872417680944e-30
aF0
aF0
aF0
aF0
aF0
aF1
aF1
aF1
aF0
aa(lp1169
VHatSide_l_anim_space_switcher
p1170
a(lp1171
Vvisibility
p1172
aVtranslateX
p1173
aVtranslateY
p1174
aVtranslateZ
p1175
aVrotateX
p1176
aVrotateY
p1177
aVrotateZ
p1178
aVscaleX
p1179
aVscaleY
p1180
aVscaleZ
p1181
aVspace_world
p1182
aaI01
aF-3.5527136788005009e-15
aF0
aF0
aF0
aF0
aF0
aF1
aF1
aF1
aF0
aa(lp1183
VHatSide_r_anim_space_switcher
p1184
a(lp1185
Vvisibility
p1186
aVtranslateX
p1187
aVtranslateY
p1188
aVtranslateZ
p1189
aVrotateX
p1190
aVrotateY
p1191
aVrotateZ
p1192
aVscaleX
p1193
aVscaleY
p1194
aVscaleZ
p1195
aVspace_world
p1196
aaI01
aF0
aF2.2204460492503131e-16
aF0
aF0
aF0
aF0
aF1
aF1
aF1
aF0
aa(lp1197
VHatTip01_anim_space_switcher
p1198
a(lp1199
Vvisibility
p1200
aVtranslateX
p1201
aVtranslateY
p1202
aVtranslateZ
p1203
aVrotateX
p1204
aVrotateY
p1205
aVrotateZ
p1206
aVscaleX
p1207
aVscaleY
p1208
aVscaleZ
p1209
aVspace_world
p1210
aaI01
aF0
aF0
aF0
aF0
aF0
aF0
aF1
aF1
aF1
aF0
aa(lp1211
VHatTip02_anim_space_switcher
p1212
a(lp1213
Vvisibility
p1214
aVtranslateX
p1215
aVtranslateY
p1216
aVtranslateZ
p1217
aVrotateX
p1218
aVrotateY
p1219
aVrotateZ
p1220
aVscaleX
p1221
aVscaleY
p1222
aVscaleZ
p1223
aVspace_world
p1224
aaI01
aF2.6645352591003757e-15
aF0
aF0
aF0
aF0
aF0
aF1
aF0.99999999999999989
aF1.0000000000000002
aF0
aa(lp1225
VHatTip03_anim_space_switcher
p1226
a(lp1227
Vvisibility
p1228
aVtranslateX
p1229
aVtranslateY
p1230
aVtranslateZ
p1231
aVrotateX
p1232
aVrotateY
p1233
aVrotateZ
p1234
aVscaleX
p1235
aVscaleY
p1236
aVscaleZ
p1237
aVspace_world
p1238
aaI01
aF0
aF3.5527136788005009e-15
aF0
aF0
aF0
aF0
aF1.0000000000000002
aF1.0000000000000002
aF1.0000000000000002
aF0
aa(lp1239
VHat_anim_space_switcher
p1240
a(lp1241
Vvisibility
p1242
aVtranslateX
p1243
aVtranslateY
p1244
aVtranslateZ
p1245
aVrotateX
p1246
aVrotateY
p1247
aVrotateZ
p1248
aVscaleX
p1249
aVscaleY
p1250
aVscaleZ
p1251
aVspace_world
p1252
aaI01
aF3.1554436208840472e-30
aF0
aF0
aF0
aF0
aF0
aF1
aF1
aF1
aF0
aa(lp1253
VWand_anim_space_switcher
p1254
a(lp1255
Vvisibility
p1256
aVtranslateX
p1257
aVtranslateY
p1258
aVtranslateZ
p1259
aVrotateX
p1260
aVrotateY
p1261
aVrotateZ
p1262
aVscaleX
p1263
aVscaleY
p1264
aVscaleZ
p1265
aVspace_world
p1266
aaI01
aF0
aF0
aF0
aF0
aF0
aF0
aF1
aF1
aF1
aF0
aa(lp1267
Vbody_anim_space_switcher
p1268
a(lp1269
Vvisibility
p1270
aVtranslateX
p1271
aVtranslateY
p1272
aVtranslateZ
p1273
aVrotateX
p1274
aVrotateY
p1275
aVrotateZ
p1276
aVscaleX
p1277
aVscaleY
p1278
aVscaleZ
p1279
aVspace_world
p1280
aaI01
aF0
aF0
aF0
aF0
aF0
aF0
aF1
aF1
aF1
aF0
aa(lp1281
Vchest_ik_anim_space_switcher
p1282
a(lp1283
Vvisibility
p1284
aVtranslateX
p1285
aVtranslateY
p1286
aVtranslateZ
p1287
aVrotateX
p1288
aVrotateY
p1289
aVrotateZ
p1290
aVscaleX
p1291
aVscaleY
p1292
aVscaleZ
p1293
aVspace_world
p1294
aVspace_chest_ik_world_aligned
p1295
aaI01
aF0
aF0
aF0
aF0
aF0
aF0
aF1
aF1
aF1
aF0
aF0
aa(lp1296
Vik_elbow_l_anim_space_switcher
p1297
a(lp1298
Vvisibility
p1299
aVtranslateX
p1300
aVtranslateY
p1301
aVtranslateZ
p1302
aVrotateX
p1303
aVrotateY
p1304
aVrotateZ
p1305
aVscaleX
p1306
aVscaleY
p1307
aVscaleZ
p1308
aVspace_world
p1309
aVspace_body_anim
p1310
aVspace_chest_ik_anim
p1311
aaI00
aF0
aF0
aF0
aF0
aF0
aF0
aF1
aF1
aF1
aF0
aF0
aF0
aa(lp1312
Vik_elbow_r_anim_space_switcher
p1313
a(lp1314
Vvisibility
p1315
aVtranslateX
p1316
aVtranslateY
p1317
aVtranslateZ
p1318
aVrotateX
p1319
aVrotateY
p1320
aVrotateZ
p1321
aVscaleX
p1322
aVscaleY
p1323
aVscaleZ
p1324
aVspace_world
p1325
aVspace_body_anim
p1326
aVspace_chest_ik_anim
p1327
aaI00
aF0
aF0
aF0
aF0
aF0
aF0
aF1
aF1
aF1
aF0
aF0
aF0
aa(lp1328
Vik_foot_anim_l_space_switcher
p1329
a(lp1330
Vvisibility
p1331
aVtranslateX
p1332
aVtranslateY
p1333
aVtranslateZ
p1334
aVrotateX
p1335
aVrotateY
p1336
aVrotateZ
p1337
aVscaleX
p1338
aVscaleY
p1339
aVscaleZ
p1340
aVspace_world
p1341
aVspace_body_anim
p1342
aaI01
aF0
aF0
aF0
aF0
aF0
aF0
aF1
aF1
aF1
aF0
aF0
aa(lp1343
Vik_foot_anim_r_space_switcher
p1344
a(lp1345
Vvisibility
p1346
aVtranslateX
p1347
aVtranslateY
p1348
aVtranslateZ
p1349
aVrotateX
p1350
aVrotateY
p1351
aVrotateZ
p1352
aVscaleX
p1353
aVscaleY
p1354
aVscaleZ
p1355
aVspace_world
p1356
aVspace_body_anim
p1357
aaI01
aF0
aF0
aF0
aF0
aF0
aF0
aF1
aF1
aF1
aF0
aF0
aa(lp1358
Vik_wrist_l_anim_space_switcher
p1359
a(lp1360
Vvisibility
p1361
aVtranslateX
p1362
aVtranslateY
p1363
aVtranslateZ
p1364
aVrotateX
p1365
aVrotateY
p1366
aVrotateZ
p1367
aVscaleX
p1368
aVscaleY
p1369
aVscaleZ
p1370
aVspace_world
p1371
aVspace_body_anim
p1372
aVspace_head_fk_anim
p1373
aVspace_chest_ik_anim
p1374
aaI00
aF0
aF0
aF0
aF0
aF0
aF0
aF1
aF1
aF1
aF0
aF0
aF0
aF0
aa(lp1375
Vik_wrist_r_anim_space_switcher
p1376
a(lp1377
Vvisibility
p1378
aVtranslateX
p1379
aVtranslateY
p1380
aVtranslateZ
p1381
aVrotateX
p1382
aVrotateY
p1383
aVrotateZ
p1384
aVscaleX
p1385
aVscaleY
p1386
aVscaleZ
p1387
aVspace_world
p1388
aVspace_body_anim
p1389
aVspace_head_fk_anim
p1390
aVspace_chest_ik_anim
p1391
aaI00
aF0
aF0
aF0
aF0
aF0
aF0
aF1
aF1
aF1
aF0
aF0
aF0
aF0
aa(lp1392
Vl_global_ik_anim_space_switcher
p1393
a(lp1394
Vvisibility
p1395
aVtranslateX
p1396
aVtranslateY
p1397
aVtranslateZ
p1398
aVrotateX
p1399
aVrotateY
p1400
aVrotateZ
p1401
aVscaleX
p1402
aVscaleY
p1403
aVscaleZ
p1404
aVspace_world
p1405
aaI01
aF0
aF0
aF0
aF0
aF0
aF0
aF1
aF1
aF1
aF0
aa(lp1406
Vmaster_anim_space_switcher
p1407
a(lp1408
Vvisibility
p1409
aVtranslateX
p1410
aVtranslateY
p1411
aVtranslateZ
p1412
aVrotateX
p1413
aVrotateY
p1414
aVrotateZ
p1415
aVscaleX
p1416
aVscaleY
p1417
aVscaleZ
p1418
aVspace_world
p1419
aaI01
aF0
aF0
aF0
aF0
aF0
aF0
aF1
aF1
aF1
aF0
aa(lp1420
Vr_global_ik_anim_space_switcher
p1421
a(lp1422
Vvisibility
p1423
aVtranslateX
p1424
aVtranslateY
p1425
aVtranslateZ
p1426
aVrotateX
p1427
aVrotateY
p1428
aVrotateZ
p1429
aVscaleX
p1430
aVscaleY
p1431
aVscaleZ
p1432
aVspace_world
p1433
aaI01
aF0
aF0
aF0
aF0
aF0
aF0
aF1
aF1
aF1
aF0
aa(lp1434
Vspine_01_space_switcher
p1435
a(lp1436
Vvisibility
p1437
aVtranslateX
p1438
aVtranslateY
p1439
aVtranslateZ
p1440
aVrotateX
p1441
aVrotateY
p1442
aVrotateZ
p1443
aVscaleX
p1444
aVscaleY
p1445
aVscaleZ
p1446
aVspace_world
p1447
aaI01
aF1.4210854715202004e-14
aF-2.2204460492503131e-16
aF0
aF0
aF0
aF0
aF1.0000000000000002
aF1.0000000000000002
aF1
aF0
aa.