(lp1
(lp2
S'fk_clavicle_r_anim'
p3
a(lp4
VtranslateX
p5
aVtranslateY
p6
aVtranslateZ
p7
aVrotateX
p8
aVrotateY
p9
aVrotateZ
p10
aaF0
aF0
aF0
aF180.88306028169427
aF193.74758841133152
aF-158.19765823600784
aa(lp11
S'fk_clavicle_l_anim'
p12
a(lp13
VtranslateX
p14
aVtranslateY
p15
aVtranslateZ
p16
aVrotateX
p17
aVrotateY
p18
aVrotateZ
p19
aaF0
aF0
aF0
aF0.79892213279919166
aF-19.315776611373153
aF28.852208965885541
aa(lp20
S'head_fk_anim'
p21
a(lp22
VtranslateX
p23
aVtranslateY
p24
aVtranslateZ
p25
aVrotateX
p26
aVrotateY
p27
aVrotateZ
p28
aVscaleX
p29
aVscaleY
p30
aVscaleZ
p31
aVfkOrientation
p32
aaF0
aF0
aF0
aF30.263430871438441
aF-6.5069433377733858
aF1.2177872856521941
aF1
aF1
aF1
aI0
aa(lp33
S'neck_01_fk_anim'
p34
a(lp35
VtranslateX
p36
aVtranslateY
p37
aVtranslateZ
p38
aVrotateX
p39
aVrotateY
p40
aVrotateZ
p41
aVscaleX
p42
aVscaleY
p43
aVscaleZ
p44
aVfkOrientation
p45
aaF0
aF0
aF0
aF38.548640339851858
aF-12.383512381624941
aF5.9848047861473557
aF1
aF1
aF1
aI0
aa(lp46
S'spine_01_anim'
p47
a(lp48
Vlength
p49
aVtranslateY
p50
aVtranslateZ
p51
aVrotateX
p52
aVrotateY
p53
aVrotateZ
p54
aaF0
aF0
aF0
aF0.60907992010527823
aF-1.1779178212693888
aF-15.504625114266339
aa(lp55
S'spine_02_anim'
p56
a(lp57
Vlength
p58
aVtranslateY
p59
aVtranslateZ
p60
aVrotateX
p61
aVrotateY
p62
aVrotateZ
p63
aaF0
aF0
aF0
aF0.21518609972025041
aF-0.083264261612239612
aF-0.7899941569678034
aa(lp64
S'spine_03_anim'
p65
a(lp66
Vlength
p67
aVtranslateY
p68
aVtranslateZ
p69
aVrotateX
p70
aVrotateY
p71
aVrotateZ
p72
aaF0
aF0
aF0
aF0.18450714269938517
aF-0.43252487056129829
aF-4.3295772676130548
aa(lp73
S'mid_ik_anim'
p74
a(lp75
VtranslateX
p76
aVtranslateY
p77
aVtranslateZ
p78
aVrotateX
p79
aVrotateY
p80
aVrotateZ
p81
aaF0
aF0
aF0
aF0
aF0
aF0
aa(lp82
S'chest_ik_anim'
p83
a(lp84
VtranslateX
p85
aVtranslateY
p86
aVtranslateZ
p87
aVrotateX
p88
aVrotateY
p89
aVrotateZ
p90
aVstretch
p91
aVsquash
p92
aVtwist_amount
p93
aVautoSpine
p94
aVrotationInfluence
p95
aaF0
aF0
aF0
aF0
aF0
aF0
aF0
aF0
aF1
aF0
aF0.25
aa(lp96
S'body_anim'
p97
a(lp98
VtranslateX
p99
aVtranslateY
p100
aVtranslateZ
p101
aVrotateX
p102
aVrotateY
p103
aVrotateZ
p104
aaF-10.237806041682944
aF24.159257494586409
aF-16.354545593261705
aF-67.230118949443124
aF8.6218071132240226
aF7.236926024045319
aa(lp105
S'hip_anim'
p106
a(lp107
VtranslateX
p108
aVtranslateY
p109
aVtranslateZ
p110
aVrotateX
p111
aVrotateY
p112
aVrotateZ
p113
aVlCalfTwistCtrlVis
p114
aVrCalfTwistCtrlVis
p115
aVautoHips
p116
aaF0
aF0
aF0
aF0
aF0
aF0
aI00
aI00
aF0
aa(lp117
S'clavicle_l_anim'
p118
a(lp119
VtranslateX
p120
aVtranslateY
p121
aVtranslateZ
p122
aVrotateX
p123
aVrotateY
p124
aVrotateZ
p125
aVautoShoulders
p126
aaF7.6819112459662175
aF-4.0146228644349184
aF9.5859970047185303
aF0
aF17.751281629813004
aF0
aF0
aa(lp127
S'clavicle_r_anim'
p128
a(lp129
VtranslateX
p130
aVtranslateY
p131
aVtranslateZ
p132
aVrotateX
p133
aVrotateY
p134
aVrotateZ
p135
aVautoShoulders
p136
aaF-12.436313802266799
aF-2.0707728446362319
aF2.753475378745863
aF6.2167743250191041
aF0
aF0
aF0
aa(lp137
S'fk_arm_l_anim'
p138
a(lp139
VtranslateX
p140
aVtranslateY
p141
aVtranslateZ
p142
aVrotateX
p143
aVrotateY
p144
aVrotateZ
p145
aaF0
aF0
aF0
aF-41.034700215261616
aF33.468867047205748
aF-33.165486465427513
aa(lp146
S'fk_arm_r_anim'
p147
a(lp148
VtranslateX
p149
aVtranslateY
p150
aVtranslateZ
p151
aVrotateX
p152
aVrotateY
p153
aVrotateZ
p154
aaF0
aF0
aF0
aF9.6879542434735768
aF-16.966153202173231
aF-62.791870630377694
aa(lp155
S'fk_elbow_l_anim'
p156
a(lp157
VtranslateX
p158
aVtranslateY
p159
aVtranslateZ
p160
aVrotateX
p161
aVrotateY
p162
aVrotateZ
p163
aaF0
aF0
aF0
aF4.4134580398670593
aF-19.374895370965586
aF-107.81681748631952
aa(lp164
S'fk_elbow_r_anim'
p165
a(lp166
VtranslateX
p167
aVtranslateY
p168
aVtranslateZ
p169
aVrotateX
p170
aVrotateY
p171
aVrotateZ
p172
aaF0
aF0
aF0
aF-81.276265943927726
aF-23.60461680067586
aF-106.83958454924473
aa(lp173
S'fk_wrist_l_anim'
p174
a(lp175
VtranslateX
p176
aVtranslateY
p177
aVtranslateZ
p178
aVrotateX
p179
aVrotateY
p180
aVrotateZ
p181
aaF0
aF0
aF0
aF-63.33995235506648
aF-10.931352242351025
aF-7.5294002974506036
aa(lp182
S'fk_wrist_r_anim'
p183
a(lp184
VtranslateX
p185
aVtranslateY
p186
aVtranslateZ
p187
aVrotateX
p188
aVrotateY
p189
aVrotateZ
p190
aaF0
aF0
aF0
aF-3.4654913881158715
aF1.1224010050808166
aF-2.8782061646953472
aa(lp191
S'ik_elbow_l_anim'
p192
a(lp193
VtranslateX
p194
aVtranslateY
p195
aVtranslateZ
p196
aaF-8.9278057817481411
aF-4.2911643387033651
aF-8.7260123589593519
aa(lp197
S'ik_elbow_r_anim'
p198
a(lp199
VtranslateX
p200
aVtranslateY
p201
aVtranslateZ
p202
aaF0
aF0
aF0
aa(lp203
S'ik_wrist_l_anim'
p204
a(lp205
VtranslateX
p206
aVtranslateY
p207
aVtranslateZ
p208
aVrotateX
p209
aVrotateY
p210
aVrotateZ
p211
aVstretch
p212
aVsquash
p213
aVstretchBias
p214
aVside
p215
aVmid_bend
p216
aVmid_swivel
p217
aVtip_pivot
p218
aVtip_swivel
p219
aaF-19.705012876984881
aF-5.4974574358849617
aF7.1238116778653762
aF172.30115640683582
aF-16.117563791202549
aF-84.012107457517089
aF0
aF0
aF0
aF0
aF0
aF0
aF0
aF0
aa(lp220
S'ik_wrist_r_anim'
p221
a(lp222
VtranslateX
p223
aVtranslateY
p224
aVtranslateZ
p225
aVrotateX
p226
aVrotateY
p227
aVrotateZ
p228
aVstretch
p229
aVsquash
p230
aVstretchBias
p231
aVside
p232
aVmid_bend
p233
aVmid_swivel
p234
aVtip_pivot
p235
aVtip_swivel
p236
aaF0
aF0
aF0
aF0
aF0
aF0
aF0
aF0
aF0
aF0
aF0
aF0
aF0
aF0
aa(lp237
S'fk_thigh_l_anim'
p238
a(lp239
VrotateX
p240
aVrotateY
p241
aVrotateZ
p242
aaF14.191524462303738
aF-20.250681506291635
aF13.900145696479328
aa(lp243
S'fk_thigh_r_anim'
p244
a(lp245
VrotateX
p246
aVrotateY
p247
aVrotateZ
p248
aaF2.8150280870495816
aF7.4998640333535187
aF-0.46801327042124274
aa(lp249
S'fk_calf_l_anim'
p250
a(lp251
VrotateX
p252
aVrotateY
p253
aVrotateZ
p254
aaF0.18734535690744916
aF-1.0901786104224935
aF-20.865231215240087
aa(lp255
S'fk_calf_r_anim'
p256
a(lp257
VrotateX
p258
aVrotateY
p259
aVrotateZ
p260
aaF0.20898157076185728
aF-1.1472194295285476
aF-22.009905566611078
aa(lp261
S'fk_foot_l_anim'
p262
a(lp263
VrotateX
p264
aVrotateY
p265
aVrotateZ
p266
aaF16.668577268268237
aF3.9009752748335065
aF-1.4704011085312449
aa(lp267
S'fk_foot_r_anim'
p268
a(lp269
VrotateX
p270
aVrotateY
p271
aVrotateZ
p272
aaF13.11643914114625
aF-4.1527742720130929
aF18.30919951101361
aa(lp273
S'fk_ball_l_anim'
p274
a(lp275
VrotateX
p276
aVrotateY
p277
aVrotateZ
p278
aaF0.11037043515775269
aF0.080489422576043926
aF5.0796495884680111
aa(lp279
S'fk_ball_r_anim'
p280
a(lp281
VrotateX
p282
aVrotateY
p283
aVrotateZ
p284
aaF0.17687243060076216
aF0.12223083920177528
aF7.9996155108321325
aa(lp285
S'ik_foot_anim_l'
p286
a(lp287
VtranslateX
p288
aVtranslateY
p289
aVtranslateZ
p290
aVrotateX
p291
aVrotateY
p292
aVrotateZ
p293
aVknee_twist
p294
aVstretch
p295
aVsquash
p296
aVtoeCtrlVis
p297
aVstretchBias
p298
aaF13.668990793111597
aF8.9355523131828818e-06
aF-0.00013107560141634167
aF0
aF0
aF0
aF0
aF0
aF0
aI00
aF0
aa(lp299
S'ik_foot_anim_r'
p300
a(lp301
VtranslateX
p302
aVtranslateY
p303
aVtranslateZ
p304
aVrotateX
p305
aVrotateY
p306
aVrotateZ
p307
aVknee_twist
p308
aVstretch
p309
aVsquash
p310
aVtoeCtrlVis
p311
aVstretchBias
p312
aaF15.883195346085067
aF48.012669100263331
aF-0.00014248493585000688
aF0
aF0
aF-70.492199235753702
aF61
aF0
aF0
aI00
aF0
aa(lp313
S'heel_ctrl_l'
p314
a(lp315
VrotateX
p316
aVrotateY
p317
aVrotateZ
p318
aVheelPivot
p319
aVballPivot
p320
aaF0
aF0
aF0
aF0
aF0
aa(lp321
S'heel_ctrl_r'
p322
a(lp323
VrotateX
p324
aVrotateY
p325
aVrotateZ
p326
aVheelPivot
p327
aVballPivot
p328
aaF0
aF0
aF0
aF0
aF0
aa(lp329
S'toe_wiggle_ctrl_l'
p330
a(lp331
VrotateX
p332
aVrotateY
p333
aVrotateZ
p334
aaF0
aF0
aF0
aa(lp335
S'toe_wiggle_ctrl_r'
p336
a(lp337
VrotateX
p338
aVrotateY
p339
aVrotateZ
p340
aaF0
aF0
aF0
aa(lp341
S'toe_tip_ctrl_l'
p342
a(lp343
VrotateX
p344
aVrotateY
p345
aVrotateZ
p346
aaF0
aF0
aF0
aa(lp347
S'toe_tip_ctrl_r'
p348
a(lp349
VrotateX
p350
aVrotateY
p351
aVrotateZ
p352
aaF0
aF0
aF0
aa(lp353
S'master_anim'
p354
a(lp355
VtranslateX
p356
aVtranslateY
p357
aVtranslateZ
p358
aVrotateX
p359
aVrotateY
p360
aVrotateZ
p361
aaF0
aF0
aF0
aF0
aF0
aF0
aa(lp362
S'offset_anim'
p363
a(lp364
VtranslateX
p365
aVtranslateY
p366
aVtranslateZ
p367
aVrotateX
p368
aVrotateY
p369
aVrotateZ
p370
aaF0
aF0
aF0
aF0
aF0
aF0
aa(lp371
S'root_anim'
p372
a(lp373
VtranslateX
p374
aVtranslateY
p375
aVtranslateZ
p376
aVrotateX
p377
aVrotateY
p378
aVrotateZ
p379
aaF0
aF0
aF0
aF0
aF0
aF0
aa(lp380
S'upperarm_l_twist_anim'
p381
a(lp382
VtranslateX
p383
aVtranslateY
p384
aVtranslateZ
p385
aVrotateX
p386
aVrotateY
p387
aVrotateZ
p388
aVscaleX
p389
aVscaleY
p390
aVscaleZ
p391
aaF0
aF0
aF2.8421709430404007e-14
aF0
aF0
aF0
aF1
aF1
aF1
aa(lp392
S'upperarm_r_twist_anim'
p393
a(lp394
VtranslateX
p395
aVtranslateY
p396
aVtranslateZ
p397
aVrotateX
p398
aVrotateY
p399
aVrotateZ
p400
aVscaleX
p401
aVscaleY
p402
aVscaleZ
p403
aaF-1.7763568394002505e-15
aF0
aF2.8421709430404007e-14
aF0
aF0
aF0
aF0.99999999999999989
aF1
aF1
aa(lp404
S'lowerarm_l_twist_anim'
p405
a(lp406
VtranslateX
p407
aVtranslateY
p408
aVtranslateZ
p409
aVrotateX
p410
aVrotateY
p411
aVrotateZ
p412
aaF0
aF0
aF0
aF0
aF0
aF0
aa(lp413
S'lowerarm_r_twist_anim'
p414
a(lp415
VtranslateX
p416
aVtranslateY
p417
aVtranslateZ
p418
aVrotateX
p419
aVrotateY
p420
aVrotateZ
p421
aaF0
aF0
aF0
aF0
aF0
aF0
aa(lp422
S'l_thigh_twist_01_anim'
p423
a(lp424
VtranslateX
p425
aVtranslateY
p426
aVtranslateZ
p427
aVrotateX
p428
aVrotateY
p429
aVrotateZ
p430
aVscaleX
p431
aVscaleY
p432
aVscaleZ
p433
aaF0
aF0
aF1.7763568394002505e-15
aF0
aF0
aF0
aF1
aF1.0000000000000002
aF1.0000000000000002
aa(lp434
S'r_thigh_twist_01_anim'
p435
a(lp436
VtranslateX
p437
aVtranslateY
p438
aVtranslateZ
p439
aVrotateX
p440
aVrotateY
p441
aVrotateZ
p442
aVscaleX
p443
aVscaleY
p444
aVscaleZ
p445
aaF0
aF0
aF0
aF0
aF0
aF0
aF1
aF1
aF0.99999999999999989
aa(lp446
S'pinky_finger_fk_ctrl_1_l'
p447
a(lp448
VtranslateX
p449
aVtranslateY
p450
aVtranslateZ
p451
aVrotateX
p452
aVrotateY
p453
aVrotateZ
p454
aVsticky
p455
aaF0
aF0
aF0
aF7.7045993818027756e-06
aF-2.9818777651614691e-05
aF40.42519026375269
aF0
aa(lp456
S'pinky_finger_fk_ctrl_1_r'
p457
a(lp458
VtranslateX
p459
aVtranslateY
p460
aVtranslateZ
p461
aVrotateX
p462
aVrotateY
p463
aVrotateZ
p464
aVsticky
p465
aaF0
aF0
aF0
aF4.4492288120553024e-05
aF-0.00027675368215149948
aF71.186385126402257
aF0
aa(lp466
S'pinky_finger_fk_ctrl_2_l'
p467
a(lp468
VtranslateX
p469
aVtranslateY
p470
aVtranslateZ
p471
aVrotateX
p472
aVrotateY
p473
aVrotateZ
p474
aaF0
aF0
aF0
aF3.3515480186006338e-08
aF3.2401619061271574e-06
aF40.425187180620433
aa(lp475
S'pinky_finger_fk_ctrl_2_r'
p476
a(lp477
VtranslateX
p478
aVtranslateY
p479
aVtranslateZ
p480
aVrotateX
p481
aVrotateY
p482
aVrotateZ
p483
aaF0
aF0
aF0
aF1.2911917408497824e-08
aF3.2479177783589782e-06
aF71.186888327979986
aa(lp484
S'pinky_finger_fk_ctrl_3_l'
p485
a(lp486
VtranslateX
p487
aVtranslateY
p488
aVtranslateZ
p489
aVrotateX
p490
aVrotateY
p491
aVrotateZ
p492
aaF0
aF0
aF0
aF2.8917422572356268e-08
aF2.7956374344727596e-06
aF40.425198389546651
aa(lp493
S'pinky_finger_fk_ctrl_3_r'
p494
a(lp495
VtranslateX
p496
aVtranslateY
p497
aVtranslateZ
p498
aVrotateX
p499
aVrotateY
p500
aVrotateZ
p501
aaF0
aF0
aF0
aF1.1143201341628593e-08
aF2.8030075317466049e-06
aF71.186899536906168
aa(lp502
S'ring_finger_fk_ctrl_1_l'
p503
a(lp504
VtranslateX
p505
aVtranslateY
p506
aVtranslateZ
p507
aVrotateX
p508
aVrotateY
p509
aVrotateZ
p510
aVsticky
p511
aaF0
aF0
aF0
aF-2.3384760498230577e-05
aF-6.0421729348954381e-06
aF40.425179427073196
aF0
aa(lp512
S'ring_finger_fk_ctrl_1_r'
p513
a(lp514
VtranslateX
p515
aVtranslateY
p516
aVtranslateZ
p517
aVrotateX
p518
aVrotateY
p519
aVrotateZ
p520
aVsticky
p521
aaF0
aF0
aF0
aF-8.0033934861829775e-06
aF-0.0003109480035344888
aF71.186412199505327
aF0
aa(lp522
S'ring_finger_fk_ctrl_2_l'
p523
a(lp524
VtranslateX
p525
aVtranslateY
p526
aVtranslateZ
p527
aVrotateX
p528
aVrotateY
p529
aVrotateZ
p530
aaF0
aF0
aF0
aF0
aF0
aF40.425182549837459
aa(lp531
S'ring_finger_fk_ctrl_2_r'
p532
a(lp533
VtranslateX
p534
aVtranslateY
p535
aVtranslateZ
p536
aVrotateX
p537
aVrotateY
p538
aVrotateZ
p539
aaF0
aF0
aF0
aF0
aF0
aF71.186883697196976
aa(lp540
S'ring_finger_fk_ctrl_3_l'
p541
a(lp542
VtranslateX
p543
aVtranslateY
p544
aVtranslateZ
p545
aVrotateX
p546
aVrotateY
p547
aVrotateZ
p548
aaF0
aF0
aF0
aF0
aF0
aF40.425182963186508
aa(lp549
S'ring_finger_fk_ctrl_3_r'
p550
a(lp551
VtranslateX
p552
aVtranslateY
p553
aVtranslateZ
p554
aVrotateX
p555
aVrotateY
p556
aVrotateZ
p557
aaF0
aF0
aF0
aF0
aF0
aF71.186884110546188
aa(lp558
S'middle_finger_fk_ctrl_1_l'
p559
a(lp560
VtranslateX
p561
aVtranslateY
p562
aVtranslateZ
p563
aVrotateX
p564
aVrotateY
p565
aVrotateZ
p566
aVsticky
p567
aaF0
aF0
aF0
aF1.2750790130618373e-05
aF-6.5453500847144187e-06
aF-7.9147944355898527
aF0
aa(lp568
S'middle_finger_fk_ctrl_1_r'
p569
a(lp570
VtranslateX
p571
aVtranslateY
p572
aVtranslateZ
p573
aVrotateX
p574
aVrotateY
p575
aVrotateZ
p576
aVsticky
p577
aaF0
aF0
aF0
aF-5.5104919501992525e-05
aF-0.00040698428445210498
aF71.18648256246459
aF0
aa(lp578
S'middle_finger_fk_ctrl_2_l'
p579
a(lp580
VtranslateX
p581
aVtranslateY
p582
aVtranslateZ
p583
aVrotateX
p584
aVrotateY
p585
aVrotateZ
p586
aaF0
aF0
aF0
aF1.687459385118056e-08
aF2.3332090295993203e-06
aF-20.174756251095285
aa(lp587
S'middle_finger_fk_ctrl_2_r'
p588
a(lp589
VtranslateX
p590
aVtranslateY
p591
aVtranslateZ
p592
aVrotateX
p593
aVrotateY
p594
aVrotateZ
p595
aaF0
aF0
aF0
aF8.825826615210619e-09
aF2.2200853882004449e-06
aF71.186893169311602
aa(lp596
S'middle_finger_fk_ctrl_3_l'
p597
a(lp598
VtranslateX
p599
aVtranslateY
p600
aVtranslateZ
p601
aVrotateX
p602
aVrotateY
p603
aVrotateZ
p604
aaF0
aF0
aF0
aF-7.0103425017634097e-08
aF2.2266591682386493e-06
aF4.3914972262408059
aa(lp605
S'middle_finger_fk_ctrl_3_r'
p606
a(lp607
VtranslateX
p608
aVtranslateY
p609
aVtranslateZ
p610
aVrotateX
p611
aVrotateY
p612
aVrotateZ
p613
aaF0
aF0
aF0
aF9.0452196038446178e-09
aF2.2752724193506819e-06
aF71.186878423604284
aa(lp614
S'index_finger_fk_ctrl_1_l'
p615
a(lp616
VtranslateX
p617
aVtranslateY
p618
aVtranslateZ
p619
aVrotateX
p620
aVrotateY
p621
aVrotateZ
p622
aVsticky
p623
aaF0
aF0
aF0
aF-0.78874452265334349
aF-18.402080049781333
aF23.811600269022165
aF0
aa(lp624
S'index_finger_fk_ctrl_1_r'
p625
a(lp626
VtranslateX
p627
aVtranslateY
p628
aVtranslateZ
p629
aVrotateX
p630
aVrotateY
p631
aVrotateZ
p632
aVsticky
p633
aaF0
aF0
aF0
aF-9.1391450983109912e-05
aF-0.0004326244865258418
aF71.186517388020789
aF0
aa(lp634
S'index_finger_fk_ctrl_2_l'
p635
a(lp636
VtranslateX
p637
aVtranslateY
p638
aVtranslateZ
p639
aVrotateX
p640
aVrotateY
p641
aVrotateZ
p642
aaF0
aF0
aF0
aF-2.249370356162208e-08
aF2.9477681426046259e-06
aF21.31450174564414
aa(lp643
S'index_finger_fk_ctrl_2_r'
p644
a(lp645
VtranslateX
p646
aVtranslateY
p647
aVtranslateZ
p648
aVrotateX
p649
aVrotateY
p650
aVrotateZ
p651
aaF0
aF0
aF0
aF1.1509937914235282e-08
aF2.8952579850650386e-06
aF71.186891603852786
aa(lp652
S'index_finger_fk_ctrl_3_l'
p653
a(lp654
VtranslateX
p655
aVtranslateY
p656
aVtranslateZ
p657
aVrotateX
p658
aVrotateY
p659
aVrotateZ
p660
aaF0
aF0
aF0
aF1.3798426908428386e-08
aF-1.8082643948469577e-06
aF21.314488565395578
aa(lp661
S'index_finger_fk_ctrl_3_r'
p662
a(lp663
VtranslateX
p664
aVtranslateY
p665
aVtranslateZ
p666
aVrotateX
p667
aVrotateY
p668
aVrotateZ
p669
aaF0
aF0
aF0
aF-6.5255187692470226e-09
aF-1.6414563192376128e-06
aF71.186878423604114
aa(lp670
S'thumb_finger_fk_ctrl_1_l'
p671
a(lp672
VtranslateX
p673
aVtranslateY
p674
aVtranslateZ
p675
aVrotateX
p676
aVrotateY
p677
aVrotateZ
p678
aVsticky
p679
aaF0
aF0
aF0
aF-3.9184667861778877e-05
aF-1.7933325930711547e-05
aF4.4057874978418443e-05
aF0
aa(lp680
S'thumb_finger_fk_ctrl_1_r'
p681
a(lp682
VtranslateX
p683
aVtranslateY
p684
aVtranslateZ
p685
aVrotateX
p686
aVrotateY
p687
aVrotateZ
p688
aVsticky
p689
aaF0
aF0
aF0
aF36.516979439405809
aF33.288477120962618
aF53.451218564683209
aF0
aa(lp690
S'thumb_finger_fk_ctrl_2_l'
p691
a(lp692
VtranslateX
p693
aVtranslateY
p694
aVtranslateZ
p695
aVrotateX
p696
aVrotateY
p697
aVrotateZ
p698
aaF0
aF0
aF0
aF-1.1424827823758665e-06
aF5.7155652433367763e-06
aF-2.0329202399146767e-05
aa(lp699
S'thumb_finger_fk_ctrl_2_r'
p700
a(lp701
VtranslateX
p702
aVtranslateY
p703
aVtranslateZ
p704
aVrotateX
p705
aVrotateY
p706
aVrotateZ
p707
aaF0
aF0
aF0
aF-1.1575318513505592e-06
aF6.1185910636077568e-06
aF-2.0235037614804807e-05
aa(lp708
S'thumb_finger_fk_ctrl_3_l'
p709
a(lp710
VtranslateX
p711
aVtranslateY
p712
aVtranslateZ
p713
aVrotateX
p714
aVrotateY
p715
aVrotateZ
p716
aaF0
aF0
aF0
aF-1.4211062544835803e-06
aF3.2689314638260079e-06
aF7.4335597351451683e-06
aa(lp717
S'thumb_finger_fk_ctrl_3_r'
p718
a(lp719
VtranslateX
p720
aVtranslateY
p721
aVtranslateZ
p722
aVrotateX
p723
aVrotateY
p724
aVrotateZ
p725
aaF0
aF0
aF0
aF-1.4117628877085555e-06
aF3.0544572550612559e-06
aF7.4713550742378151e-06
aa(lp726
S'index_l_ik_anim'
p727
a(lp728
VtranslateX
p729
aVtranslateY
p730
aVtranslateZ
p731
aVrotateX
p732
aVrotateY
p733
aVrotateZ
p734
aVpoleVectorVis
p735
aaF0
aF0
aF0
aF0
aF0
aF0
aF0
aa(lp736
S'index_r_ik_anim'
p737
a(lp738
VtranslateX
p739
aVtranslateY
p740
aVtranslateZ
p741
aVrotateX
p742
aVrotateY
p743
aVrotateZ
p744
aVpoleVectorVis
p745
aaF0
aF0
aF0
aF0
aF0
aF0
aF0
aa(lp746
S'middle_l_ik_anim'
p747
a(lp748
VtranslateX
p749
aVtranslateY
p750
aVtranslateZ
p751
aVrotateX
p752
aVrotateY
p753
aVrotateZ
p754
aVpoleVectorVis
p755
aaF0
aF0
aF0
aF0
aF0
aF0
aF0
aa(lp756
S'middle_r_ik_anim'
p757
a(lp758
VtranslateX
p759
aVtranslateY
p760
aVtranslateZ
p761
aVrotateX
p762
aVrotateY
p763
aVrotateZ
p764
aVpoleVectorVis
p765
aaF0
aF0
aF0
aF0
aF0
aF0
aF0
aa(lp766
S'ring_l_ik_anim'
p767
a(lp768
VtranslateX
p769
aVtranslateY
p770
aVtranslateZ
p771
aVrotateX
p772
aVrotateY
p773
aVrotateZ
p774
aVpoleVectorVis
p775
aaF0
aF0
aF0
aF0
aF0
aF0
aF0
aa(lp776
S'ring_r_ik_anim'
p777
a(lp778
VtranslateX
p779
aVtranslateY
p780
aVtranslateZ
p781
aVrotateX
p782
aVrotateY
p783
aVrotateZ
p784
aVpoleVectorVis
p785
aaF0
aF0
aF0
aF0
aF0
aF0
aF0
aa(lp786
S'pinky_l_ik_anim'
p787
a(lp788
VtranslateX
p789
aVtranslateY
p790
aVtranslateZ
p791
aVrotateX
p792
aVrotateY
p793
aVrotateZ
p794
aVpoleVectorVis
p795
aaF0
aF0
aF0
aF0
aF0
aF0
aF0
aa(lp796
S'pinky_r_ik_anim'
p797
a(lp798
VtranslateX
p799
aVtranslateY
p800
aVtranslateZ
p801
aVrotateX
p802
aVrotateY
p803
aVrotateZ
p804
aVpoleVectorVis
p805
aaF0
aF0
aF0
aF0
aF0
aF0
aF0
aa(lp806
S'thumb_l_ik_anim'
p807
a(lp808
VtranslateX
p809
aVtranslateY
p810
aVtranslateZ
p811
aVrotateX
p812
aVrotateY
p813
aVrotateZ
p814
aVpoleVectorVis
p815
aaF0
aF0
aF0
aF0
aF0
aF0
aF0
aa(lp816
S'thumb_r_ik_anim'
p817
a(lp818
VtranslateX
p819
aVtranslateY
p820
aVtranslateZ
p821
aVrotateX
p822
aVrotateY
p823
aVrotateZ
p824
aVpoleVectorVis
p825
aaF0
aF0
aF0
aF0
aF0
aF0
aF0
aa(lp826
S'index_l_poleVector'
p827
a(lp828
VtranslateX
p829
aVtranslateY
p830
aVtranslateZ
p831
aVrotateX
p832
aVrotateY
p833
aVrotateZ
p834
aaF0
aF0
aF0
aF0
aF0
aF0
aa(lp835
S'index_r_poleVector'
p836
a(lp837
VtranslateX
p838
aVtranslateY
p839
aVtranslateZ
p840
aVrotateX
p841
aVrotateY
p842
aVrotateZ
p843
aaF0
aF0
aF0
aF0
aF0
aF0
aa(lp844
S'middle_l_poleVector'
p845
a(lp846
VtranslateX
p847
aVtranslateY
p848
aVtranslateZ
p849
aVrotateX
p850
aVrotateY
p851
aVrotateZ
p852
aaF0
aF0
aF0
aF0
aF0
aF0
aa(lp853
S'middle_r_poleVector'
p854
a(lp855
VtranslateX
p856
aVtranslateY
p857
aVtranslateZ
p858
aVrotateX
p859
aVrotateY
p860
aVrotateZ
p861
aaF0
aF0
aF0
aF0
aF0
aF0
aa(lp862
S'ring_l_poleVector'
p863
a(lp864
VtranslateX
p865
aVtranslateY
p866
aVtranslateZ
p867
aVrotateX
p868
aVrotateY
p869
aVrotateZ
p870
aaF0
aF0
aF0
aF0
aF0
aF0
aa(lp871
S'ring_r_poleVector'
p872
a(lp873
VtranslateX
p874
aVtranslateY
p875
aVtranslateZ
p876
aVrotateX
p877
aVrotateY
p878
aVrotateZ
p879
aaF0
aF0
aF0
aF0
aF0
aF0
aa(lp880
S'pinky_l_poleVector'
p881
a(lp882
VtranslateX
p883
aVtranslateY
p884
aVtranslateZ
p885
aVrotateX
p886
aVrotateY
p887
aVrotateZ
p888
aaF0
aF0
aF0
aF0
aF0
aF0
aa(lp889
S'pinky_r_poleVector'
p890
a(lp891
VtranslateX
p892
aVtranslateY
p893
aVtranslateZ
p894
aVrotateX
p895
aVrotateY
p896
aVrotateZ
p897
aaF0
aF0
aF0
aF0
aF0
aF0
aa(lp898
S'thumb_l_poleVector'
p899
a(lp900
VtranslateX
p901
aVtranslateY
p902
aVtranslateZ
p903
aVrotateX
p904
aVrotateY
p905
aVrotateZ
p906
aaF0
aF0
aF0
aF0
aF0
aF0
aa(lp907
S'thumb_r_poleVector'
p908
a(lp909
VtranslateX
p910
aVtranslateY
p911
aVtranslateZ
p912
aVrotateX
p913
aVrotateY
p914
aVrotateZ
p915
aaF0
aF0
aF0
aF0
aF0
aF0
aa(lp916
S'l_global_ik_anim'
p917
a(lp918
VtranslateX
p919
aVtranslateY
p920
aVtranslateZ
p921
aVrotateX
p922
aVrotateY
p923
aVrotateZ
p924
aaF0
aF0
aF0
aF0
aF0
aF0
aa(lp925
S'r_global_ik_anim'
p926
a(lp927
VtranslateX
p928
aVtranslateY
p929
aVtranslateZ
p930
aVrotateX
p931
aVrotateY
p932
aVrotateZ
p933
aaF0
aF0
aF0
aF0
aF0
aF0
aa(lp934
S'Rig_Settings'
p935
a(lp936
Vspine_ik
p937
aVspine_fk
p938
aVlLegMode
p939
aVlThighTwistAmount
p940
aVllegTwistCtrlVis
p941
aVlCalfTwistAmount
p942
aVllegTwistCtrlVisCalf
p943
aVrLegMode
p944
aVrThighTwistAmount
p945
aVrlegTwistCtrlVis
p946
aVrCalfTwistAmount
p947
aVrlegTwistCtrlVisCalf
p948
aVlFkArmOrient
p949
aVlArmMode
p950
aVlClavMode
p951
aVlUpperarmTwistAmount
p952
aVltwistCtrlVis
p953
aVltwistCtrlVisLower
p954
aVlForearmTwistAmount
p955
aVrFkArmOrient
p956
aVrArmMode
p957
aVrClavMode
p958
aVrUpperarmTwistAmount
p959
aVrtwistCtrlVis
p960
aVrtwistCtrlVisLower
p961
aVrForearmTwistAmount
p962
aaF0
aF1
aI1
aF1
aI00
aF0.5
aI00
aI1
aF1
aI00
aF0.5
aI00
aI0
aI1
aI1
aF0.90000000000000002
aI00
aI00
aF0.5
aI0
aI0
aI1
aF0.90000000000000002
aI00
aI00
aF0.5
aa(lp963
S'calf_l_twist_anim'
p964
a(lp965
VtranslateX
p966
aVtranslateY
p967
aVtranslateZ
p968
aVrotateX
p969
aVrotateY
p970
aVrotateZ
p971
aaF0
aF0
aF0
aF0
aF0
aF0
aa(lp972
S'calf_r_twist_anim'
p973
a(lp974
VtranslateX
p975
aVtranslateY
p976
aVtranslateZ
p977
aVrotateX
p978
aVrotateY
p979
aVrotateZ
p980
aaF0
aF0
aF0
aF0
aF0
aF0
aa(lp981
S'fk_orient_world_loc_l'
p982
a(lp983
Vvisibility
p984
aVtranslateX
p985
aVtranslateY
p986
aVtranslateZ
p987
aVrotateX
p988
aVrotateY
p989
aVrotateZ
p990
aVscaleX
p991
aVscaleY
p992
aVscaleZ
p993
aaI01
aF13.463527301025232
aF3.9250472302634054
aF139.80900766273214
aF0.50695090295748502
aF-0
aF0
aF1
aF1
aF1
aa(lp994
S'fk_orient_world_loc_r'
p995
a(lp996
Vvisibility
p997
aVtranslateX
p998
aVtranslateY
p999
aVtranslateZ
p1000
aVrotateX
p1001
aVrotateY
p1002
aVrotateZ
p1003
aVscaleX
p1004
aVscaleY
p1005
aVscaleZ
p1006
aaI01
aF-13.463417864709825
aF3.9250331845161925
aF139.80904510341665
aF-179.4930490970425
aF0
aF0
aF1
aF1
aF1
aa(lp1007
S'fk_orient_body_loc_l'
p1008
a(lp1009
Vvisibility
p1010
aVtranslateX
p1011
aVtranslateY
p1012
aVtranslateZ
p1013
aVrotateX
p1014
aVrotateY
p1015
aVrotateZ
p1016
aVscaleX
p1017
aVscaleY
p1018
aVscaleZ
p1019
aaI01
aF39.623196864962821
aF2.891655949959389
aF-13.463527301025218
aF0.50695090295748502
aF90
aF0
aF1
aF1
aF1
aa(lp1020
S'fk_orient_body_loc_r'
p1021
a(lp1022
Vvisibility
p1023
aVtranslateX
p1024
aVtranslateY
p1025
aVtranslateZ
p1026
aVrotateX
p1027
aVrotateY
p1028
aVrotateZ
p1029
aVscaleX
p1030
aVscaleY
p1031
aVscaleZ
p1032
aaI01
aF39.62323430564733
aF2.8916419042121762
aF13.463417864709839
aF-179.4930490970425
aF90
aF0
aF1
aF0.99999999999999978
aF0.99999999999999978
aa(lp1033
VHatTip02_anim
p1034
a(lp1035
VtranslateX
p1036
aVtranslateY
p1037
aVtranslateZ
p1038
aVrotateX
p1039
aVrotateY
p1040
aVrotateZ
p1041
aVscaleX
p1042
aVscaleY
p1043
aVscaleZ
p1044
aaF0
aF0
aF0
aF0
aF0
aF0
aF1
aF1
aF1
aa(lp1045
VHatTip01_anim
p1046
a(lp1047
VtranslateX
p1048
aVtranslateY
p1049
aVtranslateZ
p1050
aVrotateX
p1051
aVrotateY
p1052
aVrotateZ
p1053
aVscaleX
p1054
aVscaleY
p1055
aVscaleZ
p1056
aaF0
aF0
aF0
aF0
aF0
aF0
aF1
aF1
aF1
aa(lp1057
VHatSide_l_anim
p1058
a(lp1059
VtranslateX
p1060
aVtranslateY
p1061
aVtranslateZ
p1062
aVrotateX
p1063
aVrotateY
p1064
aVrotateZ
p1065
aVscaleX
p1066
aVscaleY
p1067
aVscaleZ
p1068
aaF0
aF0
aF0
aF0
aF0
aF0
aF1
aF1
aF1
aa(lp1069
VHatFront_anim
p1070
a(lp1071
VtranslateX
p1072
aVtranslateY
p1073
aVtranslateZ
p1074
aVrotateX
p1075
aVrotateY
p1076
aVrotateZ
p1077
aVscaleX
p1078
aVscaleY
p1079
aVscaleZ
p1080
aaF0
aF0
aF0
aF0
aF0
aF0
aF1
aF1
aF1
aa(lp1081
VWand_anim
p1082
a(lp1083
VtranslateX
p1084
aVtranslateY
p1085
aVtranslateZ
p1086
aVrotateX
p1087
aVrotateY
p1088
aVrotateZ
p1089
aVscaleX
p1090
aVscaleY
p1091
aVscaleZ
p1092
aVblendParent1
p1093
aaF58.877551928764547
aF38.216067271470209
aF48.893370153085243
aF-75.680811602315146
aF20.951629700963959
aF73.865404940458404
aF1
aF1
aF1
aF0
aa(lp1094
VHatSide_r_anim
p1095
a(lp1096
VtranslateX
p1097
aVtranslateY
p1098
aVtranslateZ
p1099
aVrotateX
p1100
aVrotateY
p1101
aVrotateZ
p1102
aVscaleX
p1103
aVscaleY
p1104
aVscaleZ
p1105
aaF0
aF0
aF0
aF0
aF0
aF0
aF1
aF1
aF1
aa(lp1106
VHatBack_anim
p1107
a(lp1108
VtranslateX
p1109
aVtranslateY
p1110
aVtranslateZ
p1111
aVrotateX
p1112
aVrotateY
p1113
aVrotateZ
p1114
aVscaleX
p1115
aVscaleY
p1116
aVscaleZ
p1117
aaF0
aF0
aF0
aF0
aF0
aF0
aF1
aF1
aF1
aa(lp1118
VHat_anim
p1119
a(lp1120
VtranslateX
p1121
aVtranslateY
p1122
aVtranslateZ
p1123
aVrotateX
p1124
aVrotateY
p1125
aVrotateZ
p1126
aVscaleX
p1127
aVscaleY
p1128
aVscaleZ
p1129
aaF0
aF0
aF0
aF0
aF0
aF0
aF1
aF1
aF1
aa(lp1130
VHatTip03_anim
p1131
a(lp1132
VtranslateX
p1133
aVtranslateY
p1134
aVtranslateZ
p1135
aVrotateX
p1136
aVrotateY
p1137
aVrotateZ
p1138
aVscaleX
p1139
aVscaleY
p1140
aVscaleZ
p1141
aaF0
aF0
aF0
aF0
aF0
aF0
aF1
aF1
aF1
aa(lp1142
VHatBack_anim_space_switcher
p1143
a(lp1144
Vvisibility
p1145
aVtranslateX
p1146
aVtranslateY
p1147
aVtranslateZ
p1148
aVrotateX
p1149
aVrotateY
p1150
aVrotateZ
p1151
aVscaleX
p1152
aVscaleY
p1153
aVscaleZ
p1154
aVspace_world
p1155
aaI01
aF0
aF0
aF0
aF0
aF0
aF0
aF1
aF1
aF1
aF0
aa(lp1156
VHatFront_anim_space_switcher
p1157
a(lp1158
Vvisibility
p1159
aVtranslateX
p1160
aVtranslateY
p1161
aVtranslateZ
p1162
aVrotateX
p1163
aVrotateY
p1164
aVrotateZ
p1165
aVscaleX
p1166
aVscaleY
p1167
aVscaleZ
p1168
aVspace_world
p1169
aaI01
aF0
aF0
aF0
aF0
aF0
aF0
aF1
aF1
aF1
aF0
aa(lp1170
VHatSide_l_anim_space_switcher
p1171
a(lp1172
Vvisibility
p1173
aVtranslateX
p1174
aVtranslateY
p1175
aVtranslateZ
p1176
aVrotateX
p1177
aVrotateY
p1178
aVrotateZ
p1179
aVscaleX
p1180
aVscaleY
p1181
aVscaleZ
p1182
aVspace_world
p1183
aaI01
aF0
aF0
aF0
aF0
aF0
aF0
aF1
aF1
aF1
aF0
aa(lp1184
VHatSide_r_anim_space_switcher
p1185
a(lp1186
Vvisibility
p1187
aVtranslateX
p1188
aVtranslateY
p1189
aVtranslateZ
p1190
aVrotateX
p1191
aVrotateY
p1192
aVrotateZ
p1193
aVscaleX
p1194
aVscaleY
p1195
aVscaleZ
p1196
aVspace_world
p1197
aaI01
aF0
aF0
aF0
aF0
aF0
aF0
aF1
aF1
aF1
aF0
aa(lp1198
VHatTip01_anim_space_switcher
p1199
a(lp1200
Vvisibility
p1201
aVtranslateX
p1202
aVtranslateY
p1203
aVtranslateZ
p1204
aVrotateX
p1205
aVrotateY
p1206
aVrotateZ
p1207
aVscaleX
p1208
aVscaleY
p1209
aVscaleZ
p1210
aVspace_world
p1211
aaI01
aF0
aF0
aF0
aF0
aF0
aF0
aF1
aF1
aF1
aF0
aa(lp1212
VHatTip02_anim_space_switcher
p1213
a(lp1214
Vvisibility
p1215
aVtranslateX
p1216
aVtranslateY
p1217
aVtranslateZ
p1218
aVrotateX
p1219
aVrotateY
p1220
aVrotateZ
p1221
aVscaleX
p1222
aVscaleY
p1223
aVscaleZ
p1224
aVspace_world
p1225
aaI01
aF0
aF0
aF0
aF0
aF0
aF0
aF1
aF0.99999999999999989
aF1.0000000000000002
aF0
aa(lp1226
VHatTip03_anim_space_switcher
p1227
a(lp1228
Vvisibility
p1229
aVtranslateX
p1230
aVtranslateY
p1231
aVtranslateZ
p1232
aVrotateX
p1233
aVrotateY
p1234
aVrotateZ
p1235
aVscaleX
p1236
aVscaleY
p1237
aVscaleZ
p1238
aVspace_world
p1239
aaI01
aF0
aF0
aF0
aF0
aF0
aF0
aF1.0000000000000002
aF1.0000000000000002
aF1.0000000000000002
aF0
aa(lp1240
VHat_anim_space_switcher
p1241
a(lp1242
Vvisibility
p1243
aVtranslateX
p1244
aVtranslateY
p1245
aVtranslateZ
p1246
aVrotateX
p1247
aVrotateY
p1248
aVrotateZ
p1249
aVscaleX
p1250
aVscaleY
p1251
aVscaleZ
p1252
aVspace_world
p1253
aaI01
aF0
aF0
aF0
aF0
aF0
aF0
aF1
aF1
aF1
aF0
aa(lp1254
VWand_anim_space_switcher
p1255
a(lp1256
Vvisibility
p1257
aVtranslateX
p1258
aVtranslateY
p1259
aVtranslateZ
p1260
aVrotateX
p1261
aVrotateY
p1262
aVrotateZ
p1263
aVscaleX
p1264
aVscaleY
p1265
aVscaleZ
p1266
aVspace_world
p1267
aaI01
aF0
aF0
aF0
aF0
aF0
aF0
aF1
aF1
aF1
aF0
aa(lp1268
Vbody_anim_space_switcher
p1269
a(lp1270
Vvisibility
p1271
aVtranslateX
p1272
aVtranslateY
p1273
aVtranslateZ
p1274
aVrotateX
p1275
aVrotateY
p1276
aVrotateZ
p1277
aVscaleX
p1278
aVscaleY
p1279
aVscaleZ
p1280
aVspace_world
p1281
aaI01
aF0
aF0
aF0
aF0
aF0
aF0
aF1
aF1
aF1
aF0
aa(lp1282
Vchest_ik_anim_space_switcher
p1283
a(lp1284
Vvisibility
p1285
aVtranslateX
p1286
aVtranslateY
p1287
aVtranslateZ
p1288
aVrotateX
p1289
aVrotateY
p1290
aVrotateZ
p1291
aVscaleX
p1292
aVscaleY
p1293
aVscaleZ
p1294
aVspace_world
p1295
aVspace_chest_ik_world_aligned
p1296
aaI01
aF0
aF0
aF0
aF0
aF0
aF0
aF1
aF1
aF1
aF0
aF0
aa(lp1297
Vik_elbow_l_anim_space_switcher
p1298
a(lp1299
Vvisibility
p1300
aVtranslateX
p1301
aVtranslateY
p1302
aVtranslateZ
p1303
aVrotateX
p1304
aVrotateY
p1305
aVrotateZ
p1306
aVscaleX
p1307
aVscaleY
p1308
aVscaleZ
p1309
aVspace_world
p1310
aVspace_body_anim
p1311
aVspace_chest_ik_anim
p1312
aaI01
aF0
aF0
aF0
aF0
aF0
aF0
aF1
aF1
aF1
aF0
aF0
aF0
aa(lp1313
Vik_elbow_r_anim_space_switcher
p1314
a(lp1315
Vvisibility
p1316
aVtranslateX
p1317
aVtranslateY
p1318
aVtranslateZ
p1319
aVrotateX
p1320
aVrotateY
p1321
aVrotateZ
p1322
aVscaleX
p1323
aVscaleY
p1324
aVscaleZ
p1325
aVspace_world
p1326
aVspace_body_anim
p1327
aVspace_chest_ik_anim
p1328
aaI00
aF0
aF0
aF0
aF0
aF0
aF0
aF1
aF1
aF1
aF0
aF0
aF0
aa(lp1329
Vik_foot_anim_l_space_switcher
p1330
a(lp1331
Vvisibility
p1332
aVtranslateX
p1333
aVtranslateY
p1334
aVtranslateZ
p1335
aVrotateX
p1336
aVrotateY
p1337
aVrotateZ
p1338
aVscaleX
p1339
aVscaleY
p1340
aVscaleZ
p1341
aVspace_world
p1342
aVspace_body_anim
p1343
aaI01
aF0
aF0
aF0
aF0
aF0
aF0
aF1
aF1
aF1
aF0
aF0
aa(lp1344
Vik_foot_anim_r_space_switcher
p1345
a(lp1346
Vvisibility
p1347
aVtranslateX
p1348
aVtranslateY
p1349
aVtranslateZ
p1350
aVrotateX
p1351
aVrotateY
p1352
aVrotateZ
p1353
aVscaleX
p1354
aVscaleY
p1355
aVscaleZ
p1356
aVspace_world
p1357
aVspace_body_anim
p1358
aaI01
aF0
aF0
aF0
aF0
aF0
aF0
aF1
aF1
aF1
aF0
aF0
aa(lp1359
Vik_wrist_l_anim_space_switcher
p1360
a(lp1361
Vvisibility
p1362
aVtranslateX
p1363
aVtranslateY
p1364
aVtranslateZ
p1365
aVrotateX
p1366
aVrotateY
p1367
aVrotateZ
p1368
aVscaleX
p1369
aVscaleY
p1370
aVscaleZ
p1371
aVspace_world
p1372
aVspace_body_anim
p1373
aVspace_head_fk_anim
p1374
aVspace_chest_ik_anim
p1375
aaI01
aF0
aF0
aF0
aF0
aF0
aF0
aF1
aF1
aF1
aF0
aF0
aF0
aF0
aa(lp1376
Vik_wrist_r_anim_space_switcher
p1377
a(lp1378
Vvisibility
p1379
aVtranslateX
p1380
aVtranslateY
p1381
aVtranslateZ
p1382
aVrotateX
p1383
aVrotateY
p1384
aVrotateZ
p1385
aVscaleX
p1386
aVscaleY
p1387
aVscaleZ
p1388
aVspace_world
p1389
aVspace_body_anim
p1390
aVspace_head_fk_anim
p1391
aVspace_chest_ik_anim
p1392
aaI00
aF0
aF0
aF0
aF0
aF0
aF0
aF1
aF1
aF1
aF0
aF0
aF0
aF0
aa(lp1393
Vl_global_ik_anim_space_switcher
p1394
a(lp1395
Vvisibility
p1396
aVtranslateX
p1397
aVtranslateY
p1398
aVtranslateZ
p1399
aVrotateX
p1400
aVrotateY
p1401
aVrotateZ
p1402
aVscaleX
p1403
aVscaleY
p1404
aVscaleZ
p1405
aVspace_world
p1406
aaI01
aF0
aF0
aF0
aF0
aF0
aF0
aF1
aF1
aF1
aF0
aa(lp1407
Vmaster_anim_space_switcher
p1408
a(lp1409
Vvisibility
p1410
aVtranslateX
p1411
aVtranslateY
p1412
aVtranslateZ
p1413
aVrotateX
p1414
aVrotateY
p1415
aVrotateZ
p1416
aVscaleX
p1417
aVscaleY
p1418
aVscaleZ
p1419
aVspace_world
p1420
aaI01
aF0
aF0
aF0
aF0
aF0
aF0
aF1
aF1
aF1
aF0
aa(lp1421
Vr_global_ik_anim_space_switcher
p1422
a(lp1423
Vvisibility
p1424
aVtranslateX
p1425
aVtranslateY
p1426
aVtranslateZ
p1427
aVrotateX
p1428
aVrotateY
p1429
aVrotateZ
p1430
aVscaleX
p1431
aVscaleY
p1432
aVscaleZ
p1433
aVspace_world
p1434
aaI01
aF0
aF0
aF0
aF0
aF0
aF0
aF1
aF1
aF1
aF0
aa(lp1435
Vspine_01_space_switcher
p1436
a(lp1437
Vvisibility
p1438
aVtranslateX
p1439
aVtranslateY
p1440
aVtranslateZ
p1441
aVrotateX
p1442
aVrotateY
p1443
aVrotateZ
p1444
aVscaleX
p1445
aVscaleY
p1446
aVscaleZ
p1447
aVspace_world
p1448
aaI01
aF0
aF0
aF0
aF0
aF0
aF0
aF1
aF1
aF1
aF0
aa.