(lp1
(lp2
Vclavicle_r_anim
p3
a(lp4
VtranslateX
p5
aVtranslateY
p6
aVtranslateZ
p7
aVrotateX
p8
aVrotateY
p9
aVrotateZ
p10
aVautoShoulders
p11
aaF-0.048730974513376268
aF0
aF0.43656825768652097
aF0
aF-4.6334811919271148
aF0
aF0
aa(lp12
Vfk_arm_r_anim
p13
a(lp14
VtranslateX
p15
aVtranslateY
p16
aVtranslateZ
p17
aVrotateX
p18
aVrotateY
p19
aVrotateZ
p20
aaF0
aF0
aF0
aF8.7984690902426603
aF28.762223526396333
aF4.4757967259617963
aa(lp21
Vfk_elbow_r_anim
p22
a(lp23
VtranslateX
p24
aVtranslateY
p25
aVtranslateZ
p26
aVrotateX
p27
aVrotateY
p28
aVrotateZ
p29
aaF0
aF0
aF0
aF-3.6956422150845576
aF1.5849060166293654
aF-0.21409548772147224
aa(lp30
Vfk_wrist_r_anim
p31
a(lp32
VtranslateX
p33
aVtranslateY
p34
aVtranslateZ
p35
aVrotateX
p36
aVrotateY
p37
aVrotateZ
p38
aaF0
aF0
aF0
aF-7.5486245719903025
aF0.38908356204624822
aF-1.356404922970051
aa(lp39
VWand_anim
p40
a(lp41
VtranslateX
p42
aVtranslateY
p43
aVtranslateZ
p44
aVrotateX
p45
aVrotateY
p46
aVrotateZ
p47
aVscaleX
p48
aVscaleY
p49
aVscaleZ
p50
aaF23.460143904778306
aF13.454136368826221
aF-18.061814144813482
aF105.60449189308869
aF126.65241141646837
aF10.222544240327835
aF1
aF1
aF1
aa(lp51
Vpinky_finger_fk_ctrl_1_r
p52
a(lp53
VtranslateX
p54
aVtranslateY
p55
aVtranslateZ
p56
aVrotateX
p57
aVrotateY
p58
aVrotateZ
p59
aVsticky
p60
aaF0
aF0
aF0
aF0
aF0
aF75.036410423886238
aF0
aa(lp61
Vring_finger_fk_ctrl_1_r
p62
a(lp63
VtranslateX
p64
aVtranslateY
p65
aVtranslateZ
p66
aVrotateX
p67
aVrotateY
p68
aVrotateZ
p69
aVsticky
p70
aaF0
aF0
aF0
aF0
aF0
aF85.18557081068785
aF0
aa(lp71
Vmiddle_finger_fk_ctrl_1_r
p72
a(lp73
VtranslateX
p74
aVtranslateY
p75
aVtranslateZ
p76
aVrotateX
p77
aVrotateY
p78
aVrotateZ
p79
aVsticky
p80
aaF0
aF0
aF0
aF0
aF0
aF71.604563965540748
aF0
aa(lp81
Vindex_finger_fk_ctrl_1_r
p82
a(lp83
VtranslateX
p84
aVtranslateY
p85
aVtranslateZ
p86
aVrotateX
p87
aVrotateY
p88
aVrotateZ
p89
aVsticky
p90
aaF0
aF0
aF0
aF0
aF0
aF66.071492327287331
aF0
aa(lp91
Vindex_finger_fk_ctrl_2_r
p92
a(lp93
VtranslateX
p94
aVtranslateY
p95
aVtranslateZ
p96
aVrotateX
p97
aVrotateY
p98
aVrotateZ
p99
aaF0
aF0
aF0
aF0
aF0
aF0
aa(lp100
Vmiddle_finger_fk_ctrl_2_r
p101
a(lp102
VtranslateX
p103
aVtranslateY
p104
aVtranslateZ
p105
aVrotateX
p106
aVrotateY
p107
aVrotateZ
p108
aaF0
aF0
aF0
aF0
aF0
aF0
aa(lp109
Vring_finger_fk_ctrl_2_r
p110
a(lp111
VtranslateX
p112
aVtranslateY
p113
aVtranslateZ
p114
aVrotateX
p115
aVrotateY
p116
aVrotateZ
p117
aaF0
aF0
aF0
aF0
aF0
aF0
aa(lp118
Vpinky_finger_fk_ctrl_2_r
p119
a(lp120
VtranslateX
p121
aVtranslateY
p122
aVtranslateZ
p123
aVrotateX
p124
aVrotateY
p125
aVrotateZ
p126
aaF0
aF0
aF0
aF0
aF0
aF0
aa(lp127
Vpinky_finger_fk_ctrl_3_r
p128
a(lp129
VtranslateX
p130
aVtranslateY
p131
aVtranslateZ
p132
aVrotateX
p133
aVrotateY
p134
aVrotateZ
p135
aaF0
aF0
aF0
aF0
aF0
aF0
aa(lp136
Vring_finger_fk_ctrl_3_r
p137
a(lp138
VtranslateX
p139
aVtranslateY
p140
aVtranslateZ
p141
aVrotateX
p142
aVrotateY
p143
aVrotateZ
p144
aaF0
aF0
aF0
aF0
aF0
aF0
aa(lp145
Vmiddle_finger_fk_ctrl_3_r
p146
a(lp147
VtranslateX
p148
aVtranslateY
p149
aVtranslateZ
p150
aVrotateX
p151
aVrotateY
p152
aVrotateZ
p153
aaF0
aF0
aF0
aF0
aF0
aF0
aa(lp154
Vindex_finger_fk_ctrl_3_r
p155
a(lp156
VtranslateX
p157
aVtranslateY
p158
aVtranslateZ
p159
aVrotateX
p160
aVrotateY
p161
aVrotateZ
p162
aaF0
aF0
aF0
aF0
aF0
aF0
aa(lp163
Vthumb_finger_fk_ctrl_1_r
p164
a(lp165
VtranslateX
p166
aVtranslateY
p167
aVtranslateZ
p168
aVrotateX
p169
aVrotateY
p170
aVrotateZ
p171
aVsticky
p172
aaF0
aF0
aF0
aF45.610773340182504
aF-1.6946242813296122
aF16.515943999253423
aF0
aa(lp173
Vthumb_finger_fk_ctrl_2_r
p174
a(lp175
VtranslateX
p176
aVtranslateY
p177
aVtranslateZ
p178
aVrotateX
p179
aVrotateY
p180
aVrotateZ
p181
aaF0
aF0
aF0
aF0
aF0
aF0
aa(lp182
Vthumb_finger_fk_ctrl_3_r
p183
a(lp184
VtranslateX
p185
aVtranslateY
p186
aVtranslateZ
p187
aVrotateX
p188
aVrotateY
p189
aVrotateZ
p190
aaF0
aF0
aF0
aF0
aF0
aF0
aa.