(lp1
(lp2
Vpinky_finger_fk_ctrl_1_r
p3
a(lp4
VtranslateX
p5
aVtranslateY
p6
aVtranslateZ
p7
aVrotateX
p8
aVrotateY
p9
aVrotateZ
p10
aVsticky
p11
aaF0
aF0
aF0
aF0
aF0
aF75.036410423886238
aF0
aa(lp12
Vring_finger_fk_ctrl_1_r
p13
a(lp14
VtranslateX
p15
aVtranslateY
p16
aVtranslateZ
p17
aVrotateX
p18
aVrotateY
p19
aVrotateZ
p20
aVsticky
p21
aaF0
aF0
aF0
aF0
aF0
aF85.18557081068785
aF0
aa(lp22
Vmiddle_finger_fk_ctrl_1_r
p23
a(lp24
VtranslateX
p25
aVtranslateY
p26
aVtranslateZ
p27
aVrotateX
p28
aVrotateY
p29
aVrotateZ
p30
aVsticky
p31
aaF0
aF0
aF0
aF0
aF0
aF71.604563965540748
aF0
aa(lp32
Vindex_finger_fk_ctrl_1_r
p33
a(lp34
VtranslateX
p35
aVtranslateY
p36
aVtranslateZ
p37
aVrotateX
p38
aVrotateY
p39
aVrotateZ
p40
aVsticky
p41
aaF0
aF0
aF0
aF0
aF0
aF66.071492327287331
aF0
aa(lp42
Vindex_finger_fk_ctrl_2_r
p43
a(lp44
VtranslateX
p45
aVtranslateY
p46
aVtranslateZ
p47
aVrotateX
p48
aVrotateY
p49
aVrotateZ
p50
aaF0
aF0
aF0
aF0
aF0
aF62.809157464151788
aa(lp51
Vindex_finger_fk_ctrl_3_r
p52
a(lp53
VtranslateX
p54
aVtranslateY
p55
aVtranslateZ
p56
aVrotateX
p57
aVrotateY
p58
aVrotateZ
p59
aaF0
aF0
aF0
aF0
aF0
aF33.911273763120839
aa(lp60
Vmiddle_finger_fk_ctrl_3_r
p61
a(lp62
VtranslateX
p63
aVtranslateY
p64
aVtranslateZ
p65
aVrotateX
p66
aVrotateY
p67
aVrotateZ
p68
aaF0
aF0
aF0
aF0
aF0
aF32.936038213412232
aa(lp69
Vmiddle_finger_fk_ctrl_2_r
p70
a(lp71
VtranslateX
p72
aVtranslateY
p73
aVtranslateZ
p74
aVrotateX
p75
aVrotateY
p76
aVrotateZ
p77
aaF0
aF0
aF0
aF0
aF0
aF43.961174638450913
aa(lp78
Vring_finger_fk_ctrl_2_r
p79
a(lp80
VtranslateX
p81
aVtranslateY
p82
aVtranslateZ
p83
aVrotateX
p84
aVrotateY
p85
aVrotateZ
p86
aaF0
aF0
aF0
aF0
aF0
aF18.314251469390378
aa(lp87
Vpinky_finger_fk_ctrl_2_r
p88
a(lp89
VtranslateX
p90
aVtranslateY
p91
aVtranslateZ
p92
aVrotateX
p93
aVrotateY
p94
aVrotateZ
p95
aaF0
aF0
aF0
aF0
aF0
aF30.842220726475038
aa(lp96
Vpinky_finger_fk_ctrl_3_r
p97
a(lp98
VtranslateX
p99
aVtranslateY
p100
aVtranslateZ
p101
aVrotateX
p102
aVrotateY
p103
aVrotateZ
p104
aaF0
aF0
aF0
aF0
aF0
aF22.631935360663793
aa(lp105
Vring_finger_fk_ctrl_3_r
p106
a(lp107
VtranslateX
p108
aVtranslateY
p109
aVtranslateZ
p110
aVrotateX
p111
aVrotateY
p112
aVrotateZ
p113
aaF0
aF0
aF0
aF0
aF0
aF27.139261641236036
aa(lp114
Vthumb_finger_fk_ctrl_1_r
p115
a(lp116
VtranslateX
p117
aVtranslateY
p118
aVtranslateZ
p119
aVrotateX
p120
aVrotateY
p121
aVrotateZ
p122
aVsticky
p123
aaF0
aF0
aF0
aF45.610773340182504
aF-1.6946242813296122
aF16.515943999253423
aF0
aa(lp124
Vthumb_finger_fk_ctrl_2_r
p125
a(lp126
VtranslateX
p127
aVtranslateY
p128
aVtranslateZ
p129
aVrotateX
p130
aVrotateY
p131
aVrotateZ
p132
aaF0
aF0
aF0
aF18.224232543843247
aF5.8968129847795812
aF24.297404840535666
aa(lp133
Vthumb_finger_fk_ctrl_3_r
p134
a(lp135
VtranslateX
p136
aVtranslateY
p137
aVtranslateZ
p138
aVrotateX
p139
aVrotateY
p140
aVrotateZ
p141
aaF0
aF0
aF0
aF18.969554658142997
aF-2.468590800257799
aF48.769260361564655
aa(lp142
VWand_anim
p143
a(lp144
VtranslateX
p145
aVtranslateY
p146
aVtranslateZ
p147
aVrotateX
p148
aVrotateY
p149
aVrotateZ
p150
aVscaleX
p151
aVscaleY
p152
aVscaleZ
p153
aaF21.495312684419591
aF-0.73300064036142842
aF-14.677237651988413
aF-57.741401499688308
aF50.391774321321073
aF-151.39779610889977
aF1
aF1
aF1
aa.