(lp1
(lp2
S'fk_clavicle_r_anim'
p3
a(lp4
VtranslateX
p5
aVtranslateY
p6
aVtranslateZ
p7
aVrotateX
p8
aVrotateY
p9
aVrotateZ
p10
aaF0
aF0
aF0
aF180.88306028169424
aF193.74758841133149
aF-158.19765823600784
aa(lp11
S'fk_clavicle_l_anim'
p12
a(lp13
VtranslateX
p14
aVtranslateY
p15
aVtranslateZ
p16
aVrotateX
p17
aVrotateY
p18
aVrotateZ
p19
aaF0
aF0
aF0
aF0.79892213279919166
aF-19.315776611373153
aF28.852208965885541
aa(lp20
S'head_fk_anim'
p21
a(lp22
VtranslateX
p23
aVtranslateY
p24
aVtranslateZ
p25
aVrotateX
p26
aVrotateY
p27
aVrotateZ
p28
aVscaleX
p29
aVscaleY
p30
aVscaleZ
p31
aVfkOrientation
p32
aaF0
aF0
aF0
aF30.263430871438441
aF-6.5069433377733858
aF1.2177872856521941
aF1
aF1
aF1
aI0
aa(lp33
S'neck_01_fk_anim'
p34
a(lp35
VtranslateX
p36
aVtranslateY
p37
aVtranslateZ
p38
aVrotateX
p39
aVrotateY
p40
aVrotateZ
p41
aVscaleX
p42
aVscaleY
p43
aVscaleZ
p44
aVfkOrientation
p45
aaF0
aF0
aF0
aF38.548640339851858
aF-12.383512381624941
aF5.9848047861473557
aF1
aF1
aF1
aI0
aa(lp46
S'spine_01_anim'
p47
a(lp48
Vlength
p49
aVtranslateY
p50
aVtranslateZ
p51
aVrotateX
p52
aVrotateY
p53
aVrotateZ
p54
aaF0
aF0
aF0
aF0.60907992010527823
aF-1.1779178212693888
aF-15.504625114266339
aa(lp55
S'spine_02_anim'
p56
a(lp57
Vlength
p58
aVtranslateY
p59
aVtranslateZ
p60
aVrotateX
p61
aVrotateY
p62
aVrotateZ
p63
aaF0
aF0
aF0
aF0.21518609972025041
aF-0.083264261612239612
aF-0.7899941569678034
aa(lp64
S'spine_03_anim'
p65
a(lp66
Vlength
p67
aVtranslateY
p68
aVtranslateZ
p69
aVrotateX
p70
aVrotateY
p71
aVrotateZ
p72
aaF0
aF0
aF0
aF0.18450714269938517
aF-0.43252487056129829
aF-4.3295772676130548
aa(lp73
S'mid_ik_anim'
p74
a(lp75
VtranslateX
p76
aVtranslateY
p77
aVtranslateZ
p78
aVrotateX
p79
aVrotateY
p80
aVrotateZ
p81
aaF0
aF0
aF0
aF0
aF0
aF0
aa(lp82
S'chest_ik_anim'
p83
a(lp84
VtranslateX
p85
aVtranslateY
p86
aVtranslateZ
p87
aVrotateX
p88
aVrotateY
p89
aVrotateZ
p90
aVstretch
p91
aVsquash
p92
aVtwist_amount
p93
aVautoSpine
p94
aVrotationInfluence
p95
aaF0
aF0
aF0
aF0
aF0
aF0
aF0
aF0
aF1
aF0
aF0.25
aa(lp96
S'body_anim'
p97
a(lp98
VtranslateX
p99
aVtranslateY
p100
aVtranslateZ
p101
aVrotateX
p102
aVrotateY
p103
aVrotateZ
p104
aaF-10.237806041682944
aF24.159257494586409
aF-16.354545593261705
aF-67.230118949443124
aF8.6218071132240226
aF7.236926024045319
aa(lp105
S'hip_anim'
p106
a(lp107
VtranslateX
p108
aVtranslateY
p109
aVtranslateZ
p110
aVrotateX
p111
aVrotateY
p112
aVrotateZ
p113
aVlCalfTwistCtrlVis
p114
aVrCalfTwistCtrlVis
p115
aVautoHips
p116
aaF0
aF0
aF0
aF0
aF0
aF0
aI00
aI00
aF0
aa(lp117
S'clavicle_l_anim'
p118
a(lp119
VtranslateX
p120
aVtranslateY
p121
aVtranslateZ
p122
aVrotateX
p123
aVrotateY
p124
aVrotateZ
p125
aVautoShoulders
p126
aaF7.6819112459662175
aF-4.0146228644349184
aF9.5859970047185303
aF0
aF17.751281629813004
aF0
aF0
aa(lp127
S'clavicle_r_anim'
p128
a(lp129
VtranslateX
p130
aVtranslateY
p131
aVtranslateZ
p132
aVrotateX
p133
aVrotateY
p134
aVrotateZ
p135
aVautoShoulders
p136
aaF-12.436313802266799
aF-2.0707728446362319
aF2.753475378745863
aF6.2167743250191041
aF0
aF0
aF0
aa(lp137
S'fk_arm_l_anim'
p138
a(lp139
VtranslateX
p140
aVtranslateY
p141
aVtranslateZ
p142
aVrotateX
p143
aVrotateY
p144
aVrotateZ
p145
aaF0
aF0
aF0
aF-41.034700215261616
aF33.468867047205748
aF-33.165486465427513
aa(lp146
S'fk_arm_r_anim'
p147
a(lp148
VtranslateX
p149
aVtranslateY
p150
aVtranslateZ
p151
aVrotateX
p152
aVrotateY
p153
aVrotateZ
p154
aaF0
aF0
aF0
aF9.6879542434735768
aF-16.966153202173231
aF-62.791870630377694
aa(lp155
S'fk_elbow_l_anim'
p156
a(lp157
VtranslateX
p158
aVtranslateY
p159
aVtranslateZ
p160
aVrotateX
p161
aVrotateY
p162
aVrotateZ
p163
aaF0
aF0
aF0
aF4.4134580398670593
aF-19.374895370965586
aF-107.81681748631951
aa(lp164
S'fk_elbow_r_anim'
p165
a(lp166
VtranslateX
p167
aVtranslateY
p168
aVtranslateZ
p169
aVrotateX
p170
aVrotateY
p171
aVrotateZ
p172
aaF0
aF0
aF0
aF-81.276265943927726
aF-23.60461680067586
aF-106.83958454924473
aa(lp173
S'fk_wrist_l_anim'
p174
a(lp175
VtranslateX
p176
aVtranslateY
p177
aVtranslateZ
p178
aVrotateX
p179
aVrotateY
p180
aVrotateZ
p181
aaF0
aF0
aF0
aF-63.33995235506648
aF-10.931352242351025
aF-7.5294002974506036
aa(lp182
S'fk_wrist_r_anim'
p183
a(lp184
VtranslateX
p185
aVtranslateY
p186
aVtranslateZ
p187
aVrotateX
p188
aVrotateY
p189
aVrotateZ
p190
aaF0
aF0
aF0
aF-3.4654913881158715
aF1.1224010050808166
aF-2.8782061646953472
aa(lp191
S'ik_elbow_l_anim'
p192
a(lp193
VtranslateX
p194
aVtranslateY
p195
aVtranslateZ
p196
aaF0
aF0
aF0
aa(lp197
S'ik_elbow_r_anim'
p198
a(lp199
VtranslateX
p200
aVtranslateY
p201
aVtranslateZ
p202
aaF0
aF0
aF0
aa(lp203
S'ik_wrist_l_anim'
p204
a(lp205
VtranslateX
p206
aVtranslateY
p207
aVtranslateZ
p208
aVrotateX
p209
aVrotateY
p210
aVrotateZ
p211
aVstretch
p212
aVsquash
p213
aVstretchBias
p214
aVside
p215
aVmid_bend
p216
aVmid_swivel
p217
aVtip_pivot
p218
aVtip_swivel
p219
aaF0
aF0
aF0
aF0
aF0
aF0
aF0
aF0
aF0
aF0
aF0
aF0
aF0
aF0
aa(lp220
S'ik_wrist_r_anim'
p221
a(lp222
VtranslateX
p223
aVtranslateY
p224
aVtranslateZ
p225
aVrotateX
p226
aVrotateY
p227
aVrotateZ
p228
aVstretch
p229
aVsquash
p230
aVstretchBias
p231
aVside
p232
aVmid_bend
p233
aVmid_swivel
p234
aVtip_pivot
p235
aVtip_swivel
p236
aaF0
aF0
aF0
aF0
aF0
aF0
aF0
aF0
aF0
aF0
aF0
aF0
aF0
aF0
aa(lp237
S'fk_thigh_l_anim'
p238
a(lp239
VrotateX
p240
aVrotateY
p241
aVrotateZ
p242
aaF14.191524462303738
aF-20.250681506291635
aF13.900145696479328
aa(lp243
S'fk_thigh_r_anim'
p244
a(lp245
VrotateX
p246
aVrotateY
p247
aVrotateZ
p248
aaF2.8150280870495816
aF7.4998640333535187
aF-0.46801327042124274
aa(lp249
S'fk_calf_l_anim'
p250
a(lp251
VrotateX
p252
aVrotateY
p253
aVrotateZ
p254
aaF0.18734535690744916
aF-1.0901786104224935
aF-20.865231215240087
aa(lp255
S'fk_calf_r_anim'
p256
a(lp257
VrotateX
p258
aVrotateY
p259
aVrotateZ
p260
aaF0.20898157076185728
aF-1.1472194295285476
aF-22.009905566611078
aa(lp261
S'fk_foot_l_anim'
p262
a(lp263
VrotateX
p264
aVrotateY
p265
aVrotateZ
p266
aaF16.668577268268237
aF3.9009752748335065
aF-1.4704011085312449
aa(lp267
S'fk_foot_r_anim'
p268
a(lp269
VrotateX
p270
aVrotateY
p271
aVrotateZ
p272
aaF13.11643914114625
aF-4.1527742720130929
aF18.30919951101361
aa(lp273
S'fk_ball_l_anim'
p274
a(lp275
VrotateX
p276
aVrotateY
p277
aVrotateZ
p278
aaF0.11037043515775269
aF0.080489422576043926
aF5.0796495884680111
aa(lp279
S'fk_ball_r_anim'
p280
a(lp281
VrotateX
p282
aVrotateY
p283
aVrotateZ
p284
aaF0.17687243060076216
aF0.12223083920177528
aF7.9996155108321325
aa(lp285
S'ik_foot_anim_l'
p286
a(lp287
VtranslateX
p288
aVtranslateY
p289
aVtranslateZ
p290
aVrotateX
p291
aVrotateY
p292
aVrotateZ
p293
aVknee_twist
p294
aVstretch
p295
aVsquash
p296
aVtoeCtrlVis
p297
aVstretchBias
p298
aaF13.668990793111597
aF8.9355523131828818e-06
aF-0.00013107560141634167
aF0
aF0
aF0
aF0
aF0
aF0
aI00
aF0
aa(lp299
S'ik_foot_anim_r'
p300
a(lp301
VtranslateX
p302
aVtranslateY
p303
aVtranslateZ
p304
aVrotateX
p305
aVrotateY
p306
aVrotateZ
p307
aVknee_twist
p308
aVstretch
p309
aVsquash
p310
aVtoeCtrlVis
p311
aVstretchBias
p312
aaF15.883195346085067
aF48.012669100263331
aF-0.00014248493585000688
aF0
aF0
aF-70.492199235753702
aF61
aF0
aF0
aI00
aF0
aa(lp313
S'heel_ctrl_l'
p314
a(lp315
VrotateX
p316
aVrotateY
p317
aVrotateZ
p318
aVheelPivot
p319
aVballPivot
p320
aaF0
aF0
aF0
aF0
aF0
aa(lp321
S'heel_ctrl_r'
p322
a(lp323
VrotateX
p324
aVrotateY
p325
aVrotateZ
p326
aVheelPivot
p327
aVballPivot
p328
aaF0
aF0
aF0
aF0
aF0
aa(lp329
S'toe_wiggle_ctrl_l'
p330
a(lp331
VrotateX
p332
aVrotateY
p333
aVrotateZ
p334
aaF0
aF0
aF0
aa(lp335
S'toe_wiggle_ctrl_r'
p336
a(lp337
VrotateX
p338
aVrotateY
p339
aVrotateZ
p340
aaF0
aF0
aF0
aa(lp341
S'toe_tip_ctrl_l'
p342
a(lp343
VrotateX
p344
aVrotateY
p345
aVrotateZ
p346
aaF0
aF0
aF0
aa(lp347
S'toe_tip_ctrl_r'
p348
a(lp349
VrotateX
p350
aVrotateY
p351
aVrotateZ
p352
aaF0
aF0
aF0
aa(lp353
S'master_anim'
p354
a(lp355
VtranslateX
p356
aVtranslateY
p357
aVtranslateZ
p358
aVrotateX
p359
aVrotateY
p360
aVrotateZ
p361
aaF0
aF0
aF0
aF0
aF0
aF0
aa(lp362
S'offset_anim'
p363
a(lp364
VtranslateX
p365
aVtranslateY
p366
aVtranslateZ
p367
aVrotateX
p368
aVrotateY
p369
aVrotateZ
p370
aaF0
aF0
aF0
aF0
aF0
aF0
aa(lp371
S'root_anim'
p372
a(lp373
VtranslateX
p374
aVtranslateY
p375
aVtranslateZ
p376
aVrotateX
p377
aVrotateY
p378
aVrotateZ
p379
aaF0
aF0
aF0
aF0
aF0
aF0
aa(lp380
S'upperarm_l_twist_anim'
p381
a(lp382
VtranslateX
p383
aVtranslateY
p384
aVtranslateZ
p385
aVrotateX
p386
aVrotateY
p387
aVrotateZ
p388
aVscaleX
p389
aVscaleY
p390
aVscaleZ
p391
aaF0
aF0
aF2.8421709430404007e-14
aF0
aF0
aF0
aF1
aF1
aF1
aa(lp392
S'upperarm_r_twist_anim'
p393
a(lp394
VtranslateX
p395
aVtranslateY
p396
aVtranslateZ
p397
aVrotateX
p398
aVrotateY
p399
aVrotateZ
p400
aVscaleX
p401
aVscaleY
p402
aVscaleZ
p403
aaF-1.7763568394002505e-15
aF0
aF2.8421709430404007e-14
aF0
aF0
aF0
aF0.99999999999999989
aF1
aF1
aa(lp404
S'lowerarm_l_twist_anim'
p405
a(lp406
VtranslateX
p407
aVtranslateY
p408
aVtranslateZ
p409
aVrotateX
p410
aVrotateY
p411
aVrotateZ
p412
aaF0
aF0
aF0
aF0
aF0
aF0
aa(lp413
S'lowerarm_r_twist_anim'
p414
a(lp415
VtranslateX
p416
aVtranslateY
p417
aVtranslateZ
p418
aVrotateX
p419
aVrotateY
p420
aVrotateZ
p421
aaF0
aF0
aF0
aF0
aF0
aF0
aa(lp422
S'l_thigh_twist_01_anim'
p423
a(lp424
VtranslateX
p425
aVtranslateY
p426
aVtranslateZ
p427
aVrotateX
p428
aVrotateY
p429
aVrotateZ
p430
aVscaleX
p431
aVscaleY
p432
aVscaleZ
p433
aaF0
aF0
aF1.7763568394002505e-15
aF0
aF0
aF0
aF1
aF1.0000000000000002
aF1.0000000000000002
aa(lp434
S'r_thigh_twist_01_anim'
p435
a(lp436
VtranslateX
p437
aVtranslateY
p438
aVtranslateZ
p439
aVrotateX
p440
aVrotateY
p441
aVrotateZ
p442
aVscaleX
p443
aVscaleY
p444
aVscaleZ
p445
aaF0
aF0
aF0
aF0
aF0
aF0
aF1
aF1
aF0.99999999999999989
aa(lp446
S'pinky_finger_fk_ctrl_1_l'
p447
a(lp448
VtranslateX
p449
aVtranslateY
p450
aVtranslateZ
p451
aVrotateX
p452
aVrotateY
p453
aVrotateZ
p454
aVsticky
p455
aaF0
aF0
aF0
aF7.7045993818027756e-06
aF-2.9818777651614691e-05
aF40.42519026375269
aF0
aa(lp456
S'pinky_finger_fk_ctrl_1_r'
p457
a(lp458
VtranslateX
p459
aVtranslateY
p460
aVtranslateZ
p461
aVrotateX
p462
aVrotateY
p463
aVrotateZ
p464
aVsticky
p465
aaF0
aF0
aF0
aF4.4492288120553024e-05
aF-0.00027675368215149948
aF71.186385126402257
aF0
aa(lp466
S'pinky_finger_fk_ctrl_2_l'
p467
a(lp468
VtranslateX
p469
aVtranslateY
p470
aVtranslateZ
p471
aVrotateX
p472
aVrotateY
p473
aVrotateZ
p474
aaF0
aF0
aF0
aF3.3515480186006338e-08
aF3.240161906127157e-06
aF40.425187180620433
aa(lp475
S'pinky_finger_fk_ctrl_2_r'
p476
a(lp477
VtranslateX
p478
aVtranslateY
p479
aVtranslateZ
p480
aVrotateX
p481
aVrotateY
p482
aVrotateZ
p483
aaF0
aF0
aF0
aF1.2911917408497824e-08
aF3.2479177783589778e-06
aF71.186888327979986
aa(lp484
S'pinky_finger_fk_ctrl_3_l'
p485
a(lp486
VtranslateX
p487
aVtranslateY
p488
aVtranslateZ
p489
aVrotateX
p490
aVrotateY
p491
aVrotateZ
p492
aaF0
aF0
aF0
aF2.8917422572356268e-08
aF2.7956374344727596e-06
aF40.425198389546651
aa(lp493
S'pinky_finger_fk_ctrl_3_r'
p494
a(lp495
VtranslateX
p496
aVtranslateY
p497
aVtranslateZ
p498
aVrotateX
p499
aVrotateY
p500
aVrotateZ
p501
aaF0
aF0
aF0
aF1.1143201341628593e-08
aF2.8030075317466049e-06
aF71.186899536906168
aa(lp502
S'ring_finger_fk_ctrl_1_l'
p503
a(lp504
VtranslateX
p505
aVtranslateY
p506
aVtranslateZ
p507
aVrotateX
p508
aVrotateY
p509
aVrotateZ
p510
aVsticky
p511
aaF0
aF0
aF0
aF-2.3384760498230577e-05
aF-6.0421729348954381e-06
aF40.425179427073196
aF0
aa(lp512
S'ring_finger_fk_ctrl_1_r'
p513
a(lp514
VtranslateX
p515
aVtranslateY
p516
aVtranslateZ
p517
aVrotateX
p518
aVrotateY
p519
aVrotateZ
p520
aVsticky
p521
aaF0
aF0
aF0
aF-8.0033934861829775e-06
aF-0.0003109480035344888
aF71.186412199505327
aF0
aa(lp522
S'ring_finger_fk_ctrl_2_l'
p523
a(lp524
VtranslateX
p525
aVtranslateY
p526
aVtranslateZ
p527
aVrotateX
p528
aVrotateY
p529
aVrotateZ
p530
aaF0
aF0
aF0
aF0
aF0
aF40.425182549837459
aa(lp531
S'ring_finger_fk_ctrl_2_r'
p532
a(lp533
VtranslateX
p534
aVtranslateY
p535
aVtranslateZ
p536
aVrotateX
p537
aVrotateY
p538
aVrotateZ
p539
aaF0
aF0
aF0
aF0
aF0
aF71.186883697196976
aa(lp540
S'ring_finger_fk_ctrl_3_l'
p541
a(lp542
VtranslateX
p543
aVtranslateY
p544
aVtranslateZ
p545
aVrotateX
p546
aVrotateY
p547
aVrotateZ
p548
aaF0
aF0
aF0
aF0
aF0
aF40.425182963186508
aa(lp549
S'ring_finger_fk_ctrl_3_r'
p550
a(lp551
VtranslateX
p552
aVtranslateY
p553
aVtranslateZ
p554
aVrotateX
p555
aVrotateY
p556
aVrotateZ
p557
aaF0
aF0
aF0
aF0
aF0
aF71.186884110546188
aa(lp558
S'middle_finger_fk_ctrl_1_l'
p559
a(lp560
VtranslateX
p561
aVtranslateY
p562
aVtranslateZ
p563
aVrotateX
p564
aVrotateY
p565
aVrotateZ
p566
aVsticky
p567
aaF0
aF0
aF0
aF3.5855236929472837e-06
aF-1.38768972228614e-05
aF40.425179262086303
aF0
aa(lp568
S'middle_finger_fk_ctrl_1_r'
p569
a(lp570
VtranslateX
p571
aVtranslateY
p572
aVtranslateZ
p573
aVrotateX
p574
aVrotateY
p575
aVrotateZ
p576
aVsticky
p577
aaF0
aF0
aF0
aF-5.5104919501992525e-05
aF-0.00040698428445210498
aF71.18648256246459
aF0
aa(lp578
S'middle_finger_fk_ctrl_2_l'
p579
a(lp580
VtranslateX
p581
aVtranslateY
p582
aVtranslateZ
p583
aVrotateX
p584
aVrotateY
p585
aVrotateZ
p586
aaF0
aF0
aF0
aF2.4598885838082384e-08
aF2.3781360846801651e-06
aF40.425192042716482
aa(lp587
S'middle_finger_fk_ctrl_2_r'
p588
a(lp589
VtranslateX
p590
aVtranslateY
p591
aVtranslateZ
p592
aVrotateX
p593
aVrotateY
p594
aVrotateZ
p595
aaF0
aF0
aF0
aF8.825826615210619e-09
aF2.2200853882004449e-06
aF71.186893169311602
aa(lp596
S'middle_finger_fk_ctrl_3_l'
p597
a(lp598
VtranslateX
p599
aVtranslateY
p600
aVtranslateZ
p601
aVrotateX
p602
aVrotateY
p603
aVrotateZ
p604
aaF0
aF0
aF0
aF2.3141009589982345e-08
aF2.237193599096636e-06
aF40.425177276244888
aa(lp605
S'middle_finger_fk_ctrl_3_r'
p606
a(lp607
VtranslateX
p608
aVtranslateY
p609
aVtranslateZ
p610
aVrotateX
p611
aVrotateY
p612
aVrotateZ
p613
aaF0
aF0
aF0
aF9.0452196038446178e-09
aF2.2752724193506814e-06
aF71.186878423604284
aa(lp614
S'index_finger_fk_ctrl_1_l'
p615
a(lp616
VtranslateX
p617
aVtranslateY
p618
aVtranslateZ
p619
aVrotateX
p620
aVrotateY
p621
aVrotateZ
p622
aVsticky
p623
aaF0
aF0
aF0
aF-0.78874452265334349
aF-18.402080049781333
aF23.811600269022165
aF0
aa(lp624
S'index_finger_fk_ctrl_1_r'
p625
a(lp626
VtranslateX
p627
aVtranslateY
p628
aVtranslateZ
p629
aVrotateX
p630
aVrotateY
p631
aVrotateZ
p632
aVsticky
p633
aaF0
aF0
aF0
aF-9.1391450983109912e-05
aF-0.0004326244865258418
aF71.186517388020789
aF0
aa(lp634
S'index_finger_fk_ctrl_2_l'
p635
a(lp636
VtranslateX
p637
aVtranslateY
p638
aVtranslateZ
p639
aVrotateX
p640
aVrotateY
p641
aVrotateZ
p642
aaF0
aF0
aF0
aF-2.249370356162208e-08
aF2.9477681426046259e-06
aF21.31450174564414
aa(lp643
S'index_finger_fk_ctrl_2_r'
p644
a(lp645
VtranslateX
p646
aVtranslateY
p647
aVtranslateZ
p648
aVrotateX
p649
aVrotateY
p650
aVrotateZ
p651
aaF0
aF0
aF0
aF1.1509937914235282e-08
aF2.8952579850650386e-06
aF71.186891603852786
aa(lp652
S'index_finger_fk_ctrl_3_l'
p653
a(lp654
VtranslateX
p655
aVtranslateY
p656
aVtranslateZ
p657
aVrotateX
p658
aVrotateY
p659
aVrotateZ
p660
aaF0
aF0
aF0
aF1.3798426908428386e-08
aF-1.8082643948469577e-06
aF21.314488565395575
aa(lp661
S'index_finger_fk_ctrl_3_r'
p662
a(lp663
VtranslateX
p664
aVtranslateY
p665
aVtranslateZ
p666
aVrotateX
p667
aVrotateY
p668
aVrotateZ
p669
aaF0
aF0
aF0
aF-6.5255187692470218e-09
aF-1.6414563192376128e-06
aF71.186878423604114
aa(lp670
S'thumb_finger_fk_ctrl_1_l'
p671
a(lp672
VtranslateX
p673
aVtranslateY
p674
aVtranslateZ
p675
aVrotateX
p676
aVrotateY
p677
aVrotateZ
p678
aVsticky
p679
aaF0
aF0
aF0
aF-3.9184667861778877e-05
aF-1.7933325930711547e-05
aF4.4057874978418443e-05
aF0
aa(lp680
S'thumb_finger_fk_ctrl_1_r'
p681
a(lp682
VtranslateX
p683
aVtranslateY
p684
aVtranslateZ
p685
aVrotateX
p686
aVrotateY
p687
aVrotateZ
p688
aVsticky
p689
aaF0
aF0
aF0
aF36.516979439405809
aF33.288477120962618
aF53.451218564683202
aF0
aa(lp690
S'thumb_finger_fk_ctrl_2_l'
p691
a(lp692
VtranslateX
p693
aVtranslateY
p694
aVtranslateZ
p695
aVrotateX
p696
aVrotateY
p697
aVrotateZ
p698
aaF0
aF0
aF0
aF-1.1424827823758665e-06
aF5.7155652433367763e-06
aF-2.0329202399146767e-05
aa(lp699
S'thumb_finger_fk_ctrl_2_r'
p700
a(lp701
VtranslateX
p702
aVtranslateY
p703
aVtranslateZ
p704
aVrotateX
p705
aVrotateY
p706
aVrotateZ
p707
aaF0
aF0
aF0
aF-1.1575318513505592e-06
aF6.1185910636077568e-06
aF-2.0235037614804807e-05
aa(lp708
S'thumb_finger_fk_ctrl_3_l'
p709
a(lp710
VtranslateX
p711
aVtranslateY
p712
aVtranslateZ
p713
aVrotateX
p714
aVrotateY
p715
aVrotateZ
p716
aaF0
aF0
aF0
aF-1.4211062544835803e-06
aF3.2689314638260079e-06
aF7.4335597351451683e-06
aa(lp717
S'thumb_finger_fk_ctrl_3_r'
p718
a(lp719
VtranslateX
p720
aVtranslateY
p721
aVtranslateZ
p722
aVrotateX
p723
aVrotateY
p724
aVrotateZ
p725
aaF0
aF0
aF0
aF-1.4117628877085555e-06
aF3.0544572550612559e-06
aF7.4713550742378151e-06
aa(lp726
S'index_l_ik_anim'
p727
a(lp728
VtranslateX
p729
aVtranslateY
p730
aVtranslateZ
p731
aVrotateX
p732
aVrotateY
p733
aVrotateZ
p734
aVpoleVectorVis
p735
aaF0
aF0
aF0
aF0
aF0
aF0
aF0
aa(lp736
S'index_r_ik_anim'
p737
a(lp738
VtranslateX
p739
aVtranslateY
p740
aVtranslateZ
p741
aVrotateX
p742
aVrotateY
p743
aVrotateZ
p744
aVpoleVectorVis
p745
aaF0
aF0
aF0
aF0
aF0
aF0
aF0
aa(lp746
S'middle_l_ik_anim'
p747
a(lp748
VtranslateX
p749
aVtranslateY
p750
aVtranslateZ
p751
aVrotateX
p752
aVrotateY
p753
aVrotateZ
p754
aVpoleVectorVis
p755
aaF0
aF0
aF0
aF0
aF0
aF0
aF0
aa(lp756
S'middle_r_ik_anim'
p757
a(lp758
VtranslateX
p759
aVtranslateY
p760
aVtranslateZ
p761
aVrotateX
p762
aVrotateY
p763
aVrotateZ
p764
aVpoleVectorVis
p765
aaF0
aF0
aF0
aF0
aF0
aF0
aF0
aa(lp766
S'ring_l_ik_anim'
p767
a(lp768
VtranslateX
p769
aVtranslateY
p770
aVtranslateZ
p771
aVrotateX
p772
aVrotateY
p773
aVrotateZ
p774
aVpoleVectorVis
p775
aaF0
aF0
aF0
aF0
aF0
aF0
aF0
aa(lp776
S'ring_r_ik_anim'
p777
a(lp778
VtranslateX
p779
aVtranslateY
p780
aVtranslateZ
p781
aVrotateX
p782
aVrotateY
p783
aVrotateZ
p784
aVpoleVectorVis
p785
aaF0
aF0
aF0
aF0
aF0
aF0
aF0
aa(lp786
S'pinky_l_ik_anim'
p787
a(lp788
VtranslateX
p789
aVtranslateY
p790
aVtranslateZ
p791
aVrotateX
p792
aVrotateY
p793
aVrotateZ
p794
aVpoleVectorVis
p795
aaF0
aF0
aF0
aF0
aF0
aF0
aF0
aa(lp796
S'pinky_r_ik_anim'
p797
a(lp798
VtranslateX
p799
aVtranslateY
p800
aVtranslateZ
p801
aVrotateX
p802
aVrotateY
p803
aVrotateZ
p804
aVpoleVectorVis
p805
aaF0
aF0
aF0
aF0
aF0
aF0
aF0
aa(lp806
S'thumb_l_ik_anim'
p807
a(lp808
VtranslateX
p809
aVtranslateY
p810
aVtranslateZ
p811
aVrotateX
p812
aVrotateY
p813
aVrotateZ
p814
aVpoleVectorVis
p815
aaF0
aF0
aF0
aF0
aF0
aF0
aF0
aa(lp816
S'thumb_r_ik_anim'
p817
a(lp818
VtranslateX
p819
aVtranslateY
p820
aVtranslateZ
p821
aVrotateX
p822
aVrotateY
p823
aVrotateZ
p824
aVpoleVectorVis
p825
aaF0
aF0
aF0
aF0
aF0
aF0
aF0
aa(lp826
S'index_l_poleVector'
p827
a(lp828
VtranslateX
p829
aVtranslateY
p830
aVtranslateZ
p831
aVrotateX
p832
aVrotateY
p833
aVrotateZ
p834
aaF0
aF0
aF0
aF0
aF0
aF0
aa(lp835
S'index_r_poleVector'
p836
a(lp837
VtranslateX
p838
aVtranslateY
p839
aVtranslateZ
p840
aVrotateX
p841
aVrotateY
p842
aVrotateZ
p843
aaF0
aF0
aF0
aF0
aF0
aF0
aa(lp844
S'middle_l_poleVector'
p845
a(lp846
VtranslateX
p847
aVtranslateY
p848
aVtranslateZ
p849
aVrotateX
p850
aVrotateY
p851
aVrotateZ
p852
aaF0
aF0
aF0
aF0
aF0
aF0
aa(lp853
S'middle_r_poleVector'
p854
a(lp855
VtranslateX
p856
aVtranslateY
p857
aVtranslateZ
p858
aVrotateX
p859
aVrotateY
p860
aVrotateZ
p861
aaF0
aF0
aF0
aF0
aF0
aF0
aa(lp862
S'ring_l_poleVector'
p863
a(lp864
VtranslateX
p865
aVtranslateY
p866
aVtranslateZ
p867
aVrotateX
p868
aVrotateY
p869
aVrotateZ
p870
aaF0
aF0
aF0
aF0
aF0
aF0
aa(lp871
S'ring_r_poleVector'
p872
a(lp873
VtranslateX
p874
aVtranslateY
p875
aVtranslateZ
p876
aVrotateX
p877
aVrotateY
p878
aVrotateZ
p879
aaF0
aF0
aF0
aF0
aF0
aF0
aa(lp880
S'pinky_l_poleVector'
p881
a(lp882
VtranslateX
p883
aVtranslateY
p884
aVtranslateZ
p885
aVrotateX
p886
aVrotateY
p887
aVrotateZ
p888
aaF0
aF0
aF0
aF0
aF0
aF0
aa(lp889
S'pinky_r_poleVector'
p890
a(lp891
VtranslateX
p892
aVtranslateY
p893
aVtranslateZ
p894
aVrotateX
p895
aVrotateY
p896
aVrotateZ
p897
aaF0
aF0
aF0
aF0
aF0
aF0
aa(lp898
S'thumb_l_poleVector'
p899
a(lp900
VtranslateX
p901
aVtranslateY
p902
aVtranslateZ
p903
aVrotateX
p904
aVrotateY
p905
aVrotateZ
p906
aaF0
aF0
aF0
aF0
aF0
aF0
aa(lp907
S'thumb_r_poleVector'
p908
a(lp909
VtranslateX
p910
aVtranslateY
p911
aVtranslateZ
p912
aVrotateX
p913
aVrotateY
p914
aVrotateZ
p915
aaF0
aF0
aF0
aF0
aF0
aF0
aa(lp916
S'l_global_ik_anim'
p917
a(lp918
VtranslateX
p919
aVtranslateY
p920
aVtranslateZ
p921
aVrotateX
p922
aVrotateY
p923
aVrotateZ
p924
aaF0
aF0
aF0
aF0
aF0
aF0
aa(lp925
S'r_global_ik_anim'
p926
a(lp927
VtranslateX
p928
aVtranslateY
p929
aVtranslateZ
p930
aVrotateX
p931
aVrotateY
p932
aVrotateZ
p933
aaF0
aF0
aF0
aF0
aF0
aF0
aa(lp934
S'Rig_Settings'
p935
a(lp936
Vspine_ik
p937
aVspine_fk
p938
aVlLegMode
p939
aVlThighTwistAmount
p940
aVllegTwistCtrlVis
p941
aVlCalfTwistAmount
p942
aVllegTwistCtrlVisCalf
p943
aVrLegMode
p944
aVrThighTwistAmount
p945
aVrlegTwistCtrlVis
p946
aVrCalfTwistAmount
p947
aVrlegTwistCtrlVisCalf
p948
aVlFkArmOrient
p949
aVlArmMode
p950
aVlClavMode
p951
aVlUpperarmTwistAmount
p952
aVltwistCtrlVis
p953
aVltwistCtrlVisLower
p954
aVlForearmTwistAmount
p955
aVrFkArmOrient
p956
aVrArmMode
p957
aVrClavMode
p958
aVrUpperarmTwistAmount
p959
aVrtwistCtrlVis
p960
aVrtwistCtrlVisLower
p961
aVrForearmTwistAmount
p962
aVantenaHair_01_fk
p963
aVantenaHair_01_ik
p964
aVantenaHair_01_dynamic
p965
aVhairStrand_fk
p966
aVhairStrand_ik
p967
aVhairStrand_dynamic
p968
aVponytail_fk
p969
aVponytail_ik
p970
aVponytail_dynamic
p971
aVscarf_tail_fk
p972
aVscarf_tail_ik
p973
aVscarf_tail_dynamic
p974
aVskirt_back_fk
p975
aVskirt_back_ik
p976
aVskirt_back_dynamic
p977
aVskirt_front_fk
p978
aVskirt_front_ik
p979
aVskirt_front_dynamic
p980
aVskirt_l_fk
p981
aVskirt_l_ik
p982
aVskirt_l_dynamic
p983
aaF0
aF1
aI1
aF1
aI00
aF0.5
aI00
aI1
aF1
aI00
aF0.5
aI00
aI0
aI0
aI1
aF0.90000000000000002
aI00
aI00
aF0.5
aI0
aI0
aI1
aF0.90000000000000002
aI00
aI00
aF0.5
aF1
aF0
aF0
aF1
aF0
aF0
aF1
aF0
aF0
aF1
aF0
aF0
aF1
aF0
aF0
aF1
aF0
aF0
aF1
aF0
aF0
aa(lp984
S'calf_l_twist_anim'
p985
a(lp986
VtranslateX
p987
aVtranslateY
p988
aVtranslateZ
p989
aVrotateX
p990
aVrotateY
p991
aVrotateZ
p992
aaF0
aF0
aF0
aF0
aF0
aF0
aa(lp993
S'calf_r_twist_anim'
p994
a(lp995
VtranslateX
p996
aVtranslateY
p997
aVtranslateZ
p998
aVrotateX
p999
aVrotateY
p1000
aVrotateZ
p1001
aaF0
aF0
aF0
aF0
aF0
aF0
aa(lp1002
S'fk_orient_world_loc_l'
p1003
a(lp1004
Vvisibility
p1005
aVtranslateX
p1006
aVtranslateY
p1007
aVtranslateZ
p1008
aVrotateX
p1009
aVrotateY
p1010
aVrotateZ
p1011
aVscaleX
p1012
aVscaleY
p1013
aVscaleZ
p1014
aaI01
aF13.463527301025232
aF3.9250472302634054
aF139.80900766273214
aF0.50695090295748502
aF-0
aF0
aF1
aF1
aF1
aa(lp1015
S'fk_orient_world_loc_r'
p1016
a(lp1017
Vvisibility
p1018
aVtranslateX
p1019
aVtranslateY
p1020
aVtranslateZ
p1021
aVrotateX
p1022
aVrotateY
p1023
aVrotateZ
p1024
aVscaleX
p1025
aVscaleY
p1026
aVscaleZ
p1027
aaI01
aF-13.463417864709825
aF3.9250331845161925
aF139.80904510341665
aF-179.4930490970425
aF0
aF0
aF1
aF1
aF1
aa(lp1028
S'fk_orient_body_loc_l'
p1029
a(lp1030
Vvisibility
p1031
aVtranslateX
p1032
aVtranslateY
p1033
aVtranslateZ
p1034
aVrotateX
p1035
aVrotateY
p1036
aVrotateZ
p1037
aVscaleX
p1038
aVscaleY
p1039
aVscaleZ
p1040
aaI01
aF39.623196864962821
aF2.891655949959389
aF-13.463527301025218
aF0.50695090295748502
aF90
aF0
aF1
aF1
aF1
aa(lp1041
S'fk_orient_body_loc_r'
p1042
a(lp1043
Vvisibility
p1044
aVtranslateX
p1045
aVtranslateY
p1046
aVtranslateZ
p1047
aVrotateX
p1048
aVrotateY
p1049
aVrotateZ
p1050
aVscaleX
p1051
aVscaleY
p1052
aVscaleZ
p1053
aaI01
aF39.62323430564733
aF2.8916419042121762
aF13.463417864709839
aF-179.4930490970425
aF90
aF0
aF1
aF0.99999999999999978
aF0.99999999999999978
aa(lp1054
VantenaHair_01_dyn_anim
p1055
a(lp1056
VtranslateX
p1057
aVtranslateY
p1058
aVtranslateZ
p1059
aVrotateX
p1060
aVrotateY
p1061
aVrotateZ
p1062
aVchainAttach
p1063
aVchainStartEnvelope
p1064
aVchainStartFrame
p1065
aVchainStiffness
p1066
aVchainDamping
p1067
aVchainGravity
p1068
aVchainIteration
p1069
aVchainCollide
p1070
aVchainWidthBase
p1071
aVchainWidthExtremity
p1072
aVchainCollideGround
p1073
aVchainCollideGroundHeight
p1074
aaF0
aF0
aF0
aF0
aF0
aF0
aI1
aF1
aF1
aF0.10000000000000001
aF0.20000000000000001
aF1
aI1
aI00
aF1
aF1
aI00
aF0
aa(lp1075
VantenaHair_01_ik_2_anim
p1076
a(lp1077
VtranslateX
p1078
aVtranslateY
p1079
aVtranslateZ
p1080
aVrotateX
p1081
aVrotateY
p1082
aVrotateZ
p1083
aaF7.9936057773011271e-15
aF0
aF0
aF0
aF0
aF0
aa(lp1084
VantenaHair_01_ik_3_anim
p1085
a(lp1086
VtranslateX
p1087
aVtranslateY
p1088
aVtranslateZ
p1089
aVrotateX
p1090
aVrotateY
p1091
aVrotateZ
p1092
aVclusterControlVis
p1093
aaF3.5527136788005009e-15
aF0
aF0
aF0
aF0
aF0
aI00
aa(lp1094
VantenaHair_01_ik_base_anim
p1095
a(lp1096
VtranslateX
p1097
aVtranslateY
p1098
aVtranslateZ
p1099
aVrotateX
p1100
aVrotateY
p1101
aVrotateZ
p1102
aVglobal_scale
p1103
aaF0
aF7.1054273576010019e-15
aF-2.8421709430404007e-14
aF0
aF0
aF0
aF1.0000000000000002
aa(lp1104
Vfk_antenaHair_01_01_anim
p1105
a(lp1106
VtranslateX
p1107
aVtranslateY
p1108
aVtranslateZ
p1109
aVrotateX
p1110
aVrotateY
p1111
aVrotateZ
p1112
aVglobal_scale
p1113
aVlagMode
p1114
aaF0
aF3.5527136788005009e-15
aF0
aF0
aF0
aF0
aF1
aF0
aa(lp1115
VantenaHair_01_cv_0_anim
p1116
a(lp1117
VtranslateX
p1118
aVtranslateY
p1119
aVtranslateZ
p1120
aaF0
aF0
aF0
aa(lp1121
Vfk_antenaHair_01_02_anim
p1122
a(lp1123
VtranslateX
p1124
aVtranslateY
p1125
aVtranslateZ
p1126
aVrotateX
p1127
aVrotateY
p1128
aVrotateZ
p1129
aaF3.5527136788005009e-15
aF2.8421709430404007e-14
aF0
aF0
aF0
aF0
aa(lp1130
VantenaHair_01_cv_1_anim
p1131
a(lp1132
VtranslateX
p1133
aVtranslateY
p1134
aVtranslateZ
p1135
aaF0
aF0
aF0
aa(lp1136
Vfk_antenaHair_01_03_anim
p1137
a(lp1138
VtranslateX
p1139
aVtranslateY
p1140
aVtranslateZ
p1141
aVrotateX
p1142
aVrotateY
p1143
aVrotateZ
p1144
aaF3.5527136788005009e-15
aF-5.6843418860808015e-14
aF0
aF0
aF0
aF0
aa(lp1145
VantenaHair_01_cv_2_anim
p1146
a(lp1147
VtranslateX
p1148
aVtranslateY
p1149
aVtranslateZ
p1150
aaF0
aF0
aF0
aa(lp1151
Vfk_antenaHair_01_04_anim
p1152
a(lp1153
VtranslateX
p1154
aVtranslateY
p1155
aVtranslateZ
p1156
aVrotateX
p1157
aVrotateY
p1158
aVrotateZ
p1159
aaF7.9936057773011271e-15
aF2.8421709430404007e-14
aF-1.4210854715202004e-14
aF0
aF0
aF0
aa(lp1160
VantenaHair_01_cv_3_anim
p1161
a(lp1162
VtranslateX
p1163
aVtranslateY
p1164
aVtranslateZ
p1165
aaF0
aF0
aF0
aa(lp1166
VarmCloth_01_l_anim
p1167
a(lp1168
VtranslateX
p1169
aVtranslateY
p1170
aVtranslateZ
p1171
aVrotateX
p1172
aVrotateY
p1173
aVrotateZ
p1174
aVscaleX
p1175
aVscaleY
p1176
aVscaleZ
p1177
aaF0
aF0
aF0
aF0
aF0
aF0
aF1
aF1
aF1
aa(lp1178
Vbelt_pelvis_l_anim
p1179
a(lp1180
VtranslateX
p1181
aVtranslateY
p1182
aVtranslateZ
p1183
aVrotateX
p1184
aVrotateY
p1185
aVrotateZ
p1186
aVscaleX
p1187
aVscaleY
p1188
aVscaleZ
p1189
aaF0
aF0
aF0
aF0
aF0
aF0
aF1
aF1
aF1
aa(lp1190
Vbelt_thigh_r_anim
p1191
a(lp1192
VtranslateX
p1193
aVtranslateY
p1194
aVtranslateZ
p1195
aVrotateX
p1196
aVrotateY
p1197
aVrotateZ
p1198
aVscaleX
p1199
aVscaleY
p1200
aVscaleZ
p1201
aaF0
aF1.1102230246251565e-16
aF0
aF0
aF0
aF0
aF1
aF1
aF1
aa(lp1202
Vboot_ankle_l_anim
p1203
a(lp1204
VtranslateX
p1205
aVtranslateY
p1206
aVtranslateZ
p1207
aVrotateX
p1208
aVrotateY
p1209
aVrotateZ
p1210
aVscaleX
p1211
aVscaleY
p1212
aVscaleZ
p1213
aaF1.7763568394002505e-15
aF0
aF0
aF0
aF0
aF0
aF1
aF0.99999999999999989
aF0.99999999999999989
aa(lp1214
Vboot_ankle_r_anim
p1215
a(lp1216
VtranslateX
p1217
aVtranslateY
p1218
aVtranslateZ
p1219
aVrotateX
p1220
aVrotateY
p1221
aVrotateZ
p1222
aVscaleX
p1223
aVscaleY
p1224
aVscaleZ
p1225
aaF-3.5527136788005009e-15
aF0
aF-3.5527136788005009e-15
aF0
aF0
aF0
aF1.0000000000000004
aF1.0000000000000002
aF1.0000000000000002
aa(lp1226
Vbracer_top_l_anim
p1227
a(lp1228
VtranslateX
p1229
aVtranslateY
p1230
aVtranslateZ
p1231
aVrotateX
p1232
aVrotateY
p1233
aVrotateZ
p1234
aVscaleX
p1235
aVscaleY
p1236
aVscaleZ
p1237
aaF7.1054273576010019e-15
aF0
aF0
aF0
aF0
aF0
aF1
aF0.99999999999999978
aF0.99999999999999989
aa(lp1238
Vbracer_top_r_anim
p1239
a(lp1240
VtranslateX
p1241
aVtranslateY
p1242
aVtranslateZ
p1243
aVrotateX
p1244
aVrotateY
p1245
aVrotateZ
p1246
aVscaleX
p1247
aVscaleY
p1248
aVscaleZ
p1249
aaF7.1054273576010019e-15
aF-8.8817841970012523e-16
aF0
aF0
aF0
aF0
aF1
aF1.0000000000000002
aF1.0000000000000002
aa(lp1250
Vbreast_l_anim
p1251
a(lp1252
VtranslateX
p1253
aVtranslateY
p1254
aVtranslateZ
p1255
aVrotateX
p1256
aVrotateY
p1257
aVrotateZ
p1258
aVchainAttach
p1259
aVchainStartEnvelope
p1260
aVchainStartFrame
p1261
aVchainStiffness
p1262
aVchainDamping
p1263
aVchainGravity
p1264
aVchainIteration
p1265
aVchainCollide
p1266
aVchainWidthBase
p1267
aVchainWidthExtremity
p1268
aVchainCollideGround
p1269
aVchainCollideGroundHeight
p1270
aaF-1.7763568394002505e-15
aF0
aF0
aF0
aF0
aF0
aI1
aF1
aF1
aF0.10000000000000001
aF0.20000000000000001
aF1
aI1
aI00
aF1
aF1
aI00
aF0
aa(lp1271
Vbreast_r_anim
p1272
a(lp1273
VtranslateX
p1274
aVtranslateY
p1275
aVtranslateZ
p1276
aVrotateX
p1277
aVrotateY
p1278
aVrotateZ
p1279
aVchainAttach
p1280
aVchainStartEnvelope
p1281
aVchainStartFrame
p1282
aVchainStiffness
p1283
aVchainDamping
p1284
aVchainGravity
p1285
aVchainIteration
p1286
aVchainCollide
p1287
aVchainWidthBase
p1288
aVchainWidthExtremity
p1289
aVchainCollideGround
p1290
aVchainCollideGroundHeight
p1291
aaF0
aF-1.7763568394002505e-15
aF0
aF0
aF0
aF0
aI1
aF1
aF1
aF0.10000000000000001
aF0.20000000000000001
aF1
aI1
aI00
aF1
aF1
aI00
aF0
aa(lp1292
Veye_l_anim
p1293
a(lp1294
VtranslateX
p1295
aVtranslateY
p1296
aVtranslateZ
p1297
aVrotateX
p1298
aVrotateY
p1299
aVrotateZ
p1300
aVscaleX
p1301
aVscaleY
p1302
aVscaleZ
p1303
aaF0
aF0
aF0
aF0
aF0
aF0
aF1
aF1
aF1
aa(lp1304
Veye_r_anim
p1305
a(lp1306
VtranslateX
p1307
aVtranslateY
p1308
aVtranslateZ
p1309
aVrotateX
p1310
aVrotateY
p1311
aVrotateZ
p1312
aVscaleX
p1313
aVscaleY
p1314
aVscaleZ
p1315
aaF0
aF0
aF0
aF0
aF0
aF0
aF1
aF1
aF1
aa(lp1316
Veyebrow_01_l_anim
p1317
a(lp1318
VtranslateX
p1319
aVtranslateY
p1320
aVtranslateZ
p1321
aVrotateX
p1322
aVrotateY
p1323
aVrotateZ
p1324
aVscaleX
p1325
aVscaleY
p1326
aVscaleZ
p1327
aaF0
aF0
aF0
aF0
aF0
aF0
aF1
aF1
aF1
aa(lp1328
Veyebrow_01_r_anim
p1329
a(lp1330
VtranslateX
p1331
aVtranslateY
p1332
aVtranslateZ
p1333
aVrotateX
p1334
aVrotateY
p1335
aVrotateZ
p1336
aVscaleX
p1337
aVscaleY
p1338
aVscaleZ
p1339
aaF0
aF0
aF0
aF0
aF0
aF0
aF1
aF1
aF1
aa(lp1340
Veyebrow_02_l_anim
p1341
a(lp1342
VtranslateX
p1343
aVtranslateY
p1344
aVtranslateZ
p1345
aVrotateX
p1346
aVrotateY
p1347
aVrotateZ
p1348
aVscaleX
p1349
aVscaleY
p1350
aVscaleZ
p1351
aaF0
aF0
aF0
aF0
aF0
aF0
aF1
aF1
aF1
aa(lp1352
Veyebrow_02_r_anim
p1353
a(lp1354
VtranslateX
p1355
aVtranslateY
p1356
aVtranslateZ
p1357
aVrotateX
p1358
aVrotateY
p1359
aVrotateZ
p1360
aVscaleX
p1361
aVscaleY
p1362
aVscaleZ
p1363
aaF0
aF0
aF0
aF0
aF0
aF0
aF1
aF1
aF1
aa(lp1364
Veyebrow_03_l_anim
p1365
a(lp1366
VtranslateX
p1367
aVtranslateY
p1368
aVtranslateZ
p1369
aVrotateX
p1370
aVrotateY
p1371
aVrotateZ
p1372
aVscaleX
p1373
aVscaleY
p1374
aVscaleZ
p1375
aaF0
aF0
aF0
aF0
aF0
aF0
aF1
aF1
aF1
aa(lp1376
Veyebrow_03_r_anim
p1377
a(lp1378
VtranslateX
p1379
aVtranslateY
p1380
aVtranslateZ
p1381
aVrotateX
p1382
aVrotateY
p1383
aVrotateZ
p1384
aVscaleX
p1385
aVscaleY
p1386
aVscaleZ
p1387
aaF0
aF0
aF0
aF0
aF0
aF0
aF1
aF1
aF1
aa(lp1388
Veyelid_lower_l_anim
p1389
a(lp1390
VtranslateX
p1391
aVtranslateY
p1392
aVtranslateZ
p1393
aVrotateX
p1394
aVrotateY
p1395
aVrotateZ
p1396
aVscaleX
p1397
aVscaleY
p1398
aVscaleZ
p1399
aaF0
aF0
aF0
aF0
aF0
aF0
aF1
aF1
aF1
aa(lp1400
Veyelid_lower_r_anim
p1401
a(lp1402
VtranslateX
p1403
aVtranslateY
p1404
aVtranslateZ
p1405
aVrotateX
p1406
aVrotateY
p1407
aVrotateZ
p1408
aVscaleX
p1409
aVscaleY
p1410
aVscaleZ
p1411
aaF0
aF0
aF0
aF0
aF0
aF0
aF1
aF1
aF1
aa(lp1412
Veyelid_upper_l_anim
p1413
a(lp1414
VtranslateX
p1415
aVtranslateY
p1416
aVtranslateZ
p1417
aVrotateX
p1418
aVrotateY
p1419
aVrotateZ
p1420
aVscaleX
p1421
aVscaleY
p1422
aVscaleZ
p1423
aaF0
aF0
aF0
aF0
aF0
aF0
aF1
aF1
aF1
aa(lp1424
Veyelid_upper_r_anim
p1425
a(lp1426
VtranslateX
p1427
aVtranslateY
p1428
aVtranslateZ
p1429
aVrotateX
p1430
aVrotateY
p1431
aVrotateZ
p1432
aVscaleX
p1433
aVscaleY
p1434
aVscaleZ
p1435
aaF0
aF0
aF0
aF0
aF0
aF0
aF1
aF1
aF1
aa(lp1436
VhairStrand_dyn_anim
p1437
a(lp1438
VtranslateX
p1439
aVtranslateY
p1440
aVtranslateZ
p1441
aVrotateX
p1442
aVrotateY
p1443
aVrotateZ
p1444
aVchainAttach
p1445
aVchainStartEnvelope
p1446
aVchainStartFrame
p1447
aVchainStiffness
p1448
aVchainDamping
p1449
aVchainGravity
p1450
aVchainIteration
p1451
aVchainCollide
p1452
aVchainWidthBase
p1453
aVchainWidthExtremity
p1454
aVchainCollideGround
p1455
aVchainCollideGroundHeight
p1456
aaF0
aF0
aF0
aF0
aF0
aF0
aI1
aF1
aF1
aF0.10000000000000001
aF0.20000000000000001
aF1
aI1
aI00
aF1
aF1
aI00
aF0
aa(lp1457
VhairStrand_ik_2_anim
p1458
a(lp1459
VtranslateX
p1460
aVtranslateY
p1461
aVtranslateZ
p1462
aVrotateX
p1463
aVrotateY
p1464
aVrotateZ
p1465
aaF-7.1054273576010019e-15
aF0
aF-1.7763568394002505e-15
aF0
aF0
aF0
aa(lp1466
VhairStrand_ik_3_anim
p1467
a(lp1468
VtranslateX
p1469
aVtranslateY
p1470
aVtranslateZ
p1471
aVrotateX
p1472
aVrotateY
p1473
aVrotateZ
p1474
aVclusterControlVis
p1475
aaF-1.4210854715202004e-14
aF0
aF-3.5527136788005009e-15
aF0
aF0
aF0
aI00
aa(lp1476
VhairStrand_ik_base_anim
p1477
a(lp1478
VtranslateX
p1479
aVtranslateY
p1480
aVtranslateZ
p1481
aVrotateX
p1482
aVrotateY
p1483
aVrotateZ
p1484
aVglobal_scale
p1485
aaF1.7763568394002505e-15
aF-2.8421709430404007e-14
aF0
aF0
aF0
aF0
aF1
aa(lp1486
Vfk_hairStrand_01_anim
p1487
a(lp1488
VtranslateX
p1489
aVtranslateY
p1490
aVtranslateZ
p1491
aVrotateX
p1492
aVrotateY
p1493
aVrotateZ
p1494
aVglobal_scale
p1495
aVlagMode
p1496
aaF1.7763568394002505e-15
aF0
aF0
aF0
aF0
aF0
aF1
aF0
aa(lp1497
VhairStrand_cv_0_anim
p1498
a(lp1499
VtranslateX
p1500
aVtranslateY
p1501
aVtranslateZ
p1502
aaF0
aF0
aF0
aa(lp1503
Vfk_hairStrand_02_anim
p1504
a(lp1505
VtranslateX
p1506
aVtranslateY
p1507
aVtranslateZ
p1508
aVrotateX
p1509
aVrotateY
p1510
aVrotateZ
p1511
aaF-7.1054273576010019e-15
aF-2.8421709430404007e-14
aF2.6645352591003757e-15
aF0
aF0
aF0
aa(lp1512
VhairStrand_cv_1_anim
p1513
a(lp1514
VtranslateX
p1515
aVtranslateY
p1516
aVtranslateZ
p1517
aaF0
aF0
aF0
aa(lp1518
Vfk_hairStrand_03_anim
p1519
a(lp1520
VtranslateX
p1521
aVtranslateY
p1522
aVtranslateZ
p1523
aVrotateX
p1524
aVrotateY
p1525
aVrotateZ
p1526
aaF1.4210854715202004e-14
aF0
aF1.7763568394002505e-15
aF0
aF0
aF0
aa(lp1527
VhairStrand_cv_2_anim
p1528
a(lp1529
VtranslateX
p1530
aVtranslateY
p1531
aVtranslateZ
p1532
aaF0
aF0
aF0
aa(lp1533
Vfk_hairStrand_04_anim
p1534
a(lp1535
VtranslateX
p1536
aVtranslateY
p1537
aVtranslateZ
p1538
aVrotateX
p1539
aVrotateY
p1540
aVrotateZ
p1541
aaF0
aF2.8421709430404007e-14
aF1.7763568394002505e-15
aF0
aF0
aF0
aa(lp1542
VhairStrand_cv_3_anim
p1543
a(lp1544
VtranslateX
p1545
aVtranslateY
p1546
aVtranslateZ
p1547
aaF0
aF0
aF0
aa(lp1548
Vhair_back_anim
p1549
a(lp1550
VtranslateX
p1551
aVtranslateY
p1552
aVtranslateZ
p1553
aVrotateX
p1554
aVrotateY
p1555
aVrotateZ
p1556
aVchainAttach
p1557
aVchainStartEnvelope
p1558
aVchainStartFrame
p1559
aVchainStiffness
p1560
aVchainDamping
p1561
aVchainGravity
p1562
aVchainIteration
p1563
aVchainCollide
p1564
aVchainWidthBase
p1565
aVchainWidthExtremity
p1566
aVchainCollideGround
p1567
aVchainCollideGroundHeight
p1568
aaF1.5777218104420236e-30
aF0
aF0
aF0
aF0
aF0
aI1
aF1
aF1
aF0.10000000000000001
aF0.20000000000000001
aF1
aI1
aI00
aF1
aF1
aI00
aF0
aa(lp1569
VhighBoot_top_l_anim
p1570
a(lp1571
VtranslateX
p1572
aVtranslateY
p1573
aVtranslateZ
p1574
aVrotateX
p1575
aVrotateY
p1576
aVrotateZ
p1577
aVscaleX
p1578
aVscaleY
p1579
aVscaleZ
p1580
aaF0
aF0
aF0
aF0
aF0
aF0
aF1
aF1
aF1
aa(lp1581
VhighBoot_top_r_anim
p1582
a(lp1583
VtranslateX
p1584
aVtranslateY
p1585
aVtranslateZ
p1586
aVrotateX
p1587
aVrotateY
p1588
aVrotateZ
p1589
aVscaleX
p1590
aVscaleY
p1591
aVscaleZ
p1592
aaF-1.7763568394002505e-15
aF0
aF0
aF0
aF0
aF0
aF1
aF1
aF1
aa(lp1593
Vhip_cloth_01_anim
p1594
a(lp1595
VtranslateX
p1596
aVtranslateY
p1597
aVtranslateZ
p1598
aVrotateX
p1599
aVrotateY
p1600
aVrotateZ
p1601
aVscaleX
p1602
aVscaleY
p1603
aVscaleZ
p1604
aaF0
aF0
aF0
aF0
aF0
aF0
aF1
aF1
aF1
aa(lp1605
Vhip_cloth_02_anim
p1606
a(lp1607
VtranslateX
p1608
aVtranslateY
p1609
aVtranslateZ
p1610
aVrotateX
p1611
aVrotateY
p1612
aVrotateZ
p1613
aVscaleX
p1614
aVscaleY
p1615
aVscaleZ
p1616
aaF0
aF0
aF0
aF0
aF0
aF0
aF1
aF1
aF1
aa(lp1617
Vjaw_anim
p1618
a(lp1619
VtranslateX
p1620
aVtranslateY
p1621
aVtranslateZ
p1622
aVrotateX
p1623
aVrotateY
p1624
aVrotateZ
p1625
aVscaleX
p1626
aVscaleY
p1627
aVscaleZ
p1628
aaF0
aF0
aF0
aF0
aF0
aF0
aF1
aF1
aF1
aa(lp1629
Vlip_down_anim
p1630
a(lp1631
VtranslateX
p1632
aVtranslateY
p1633
aVtranslateZ
p1634
aVrotateX
p1635
aVrotateY
p1636
aVrotateZ
p1637
aVscaleX
p1638
aVscaleY
p1639
aVscaleZ
p1640
aaF0
aF0
aF0
aF0
aF0
aF0
aF1
aF1
aF1
aa(lp1641
Vlip_down_01_l_anim
p1642
a(lp1643
VtranslateX
p1644
aVtranslateY
p1645
aVtranslateZ
p1646
aVrotateX
p1647
aVrotateY
p1648
aVrotateZ
p1649
aVscaleX
p1650
aVscaleY
p1651
aVscaleZ
p1652
aaF0
aF0
aF0
aF0
aF0
aF0
aF1
aF1
aF1
aa(lp1653
Vlip_down_01_r_anim
p1654
a(lp1655
VtranslateX
p1656
aVtranslateY
p1657
aVtranslateZ
p1658
aVrotateX
p1659
aVrotateY
p1660
aVrotateZ
p1661
aVscaleX
p1662
aVscaleY
p1663
aVscaleZ
p1664
aaF0
aF0
aF0
aF0
aF0
aF0
aF1
aF1
aF1
aa(lp1665
Vlip_down_02_l_anim
p1666
a(lp1667
VtranslateX
p1668
aVtranslateY
p1669
aVtranslateZ
p1670
aVrotateX
p1671
aVrotateY
p1672
aVrotateZ
p1673
aVscaleX
p1674
aVscaleY
p1675
aVscaleZ
p1676
aaF0
aF0
aF0
aF0
aF0
aF0
aF1
aF1
aF1
aa(lp1677
Vlip_down_02_r_anim
p1678
a(lp1679
VtranslateX
p1680
aVtranslateY
p1681
aVtranslateZ
p1682
aVrotateX
p1683
aVrotateY
p1684
aVrotateZ
p1685
aVscaleX
p1686
aVscaleY
p1687
aVscaleZ
p1688
aaF0
aF0
aF0
aF0
aF0
aF0
aF1
aF1
aF1
aa(lp1689
Vlip_up_anim
p1690
a(lp1691
VtranslateX
p1692
aVtranslateY
p1693
aVtranslateZ
p1694
aVrotateX
p1695
aVrotateY
p1696
aVrotateZ
p1697
aVscaleX
p1698
aVscaleY
p1699
aVscaleZ
p1700
aaF0
aF0
aF0
aF0
aF0
aF0
aF1
aF1
aF1
aa(lp1701
Vlip_up_01_l_anim
p1702
a(lp1703
VtranslateX
p1704
aVtranslateY
p1705
aVtranslateZ
p1706
aVrotateX
p1707
aVrotateY
p1708
aVrotateZ
p1709
aVscaleX
p1710
aVscaleY
p1711
aVscaleZ
p1712
aaF0
aF0
aF0
aF0
aF0
aF0
aF1
aF1
aF1
aa(lp1713
Vlip_up_01_r_anim
p1714
a(lp1715
VtranslateX
p1716
aVtranslateY
p1717
aVtranslateZ
p1718
aVrotateX
p1719
aVrotateY
p1720
aVrotateZ
p1721
aVscaleX
p1722
aVscaleY
p1723
aVscaleZ
p1724
aaF0
aF0
aF0
aF0
aF0
aF0
aF1
aF1
aF1
aa(lp1725
Vlip_up_02_l_anim
p1726
a(lp1727
VtranslateX
p1728
aVtranslateY
p1729
aVtranslateZ
p1730
aVrotateX
p1731
aVrotateY
p1732
aVrotateZ
p1733
aVscaleX
p1734
aVscaleY
p1735
aVscaleZ
p1736
aaF0
aF0
aF0
aF0
aF0
aF0
aF1
aF1
aF1
aa(lp1737
Vlip_up_02_r_anim
p1738
a(lp1739
VtranslateX
p1740
aVtranslateY
p1741
aVtranslateZ
p1742
aVrotateX
p1743
aVrotateY
p1744
aVrotateZ
p1745
aVscaleX
p1746
aVscaleY
p1747
aVscaleZ
p1748
aaF0
aF-1.7763568394002505e-15
aF0
aF0
aF0
aF0
aF1
aF1
aF1
aa(lp1749
Vlip_up_03_l_anim
p1750
a(lp1751
VtranslateX
p1752
aVtranslateY
p1753
aVtranslateZ
p1754
aVrotateX
p1755
aVrotateY
p1756
aVrotateZ
p1757
aVscaleX
p1758
aVscaleY
p1759
aVscaleZ
p1760
aaF0
aF0
aF0
aF0
aF0
aF0
aF1
aF1
aF1
aa(lp1761
Vlip_up_03_r_anim
p1762
a(lp1763
VtranslateX
p1764
aVtranslateY
p1765
aVtranslateZ
p1766
aVrotateX
p1767
aVrotateY
p1768
aVrotateZ
p1769
aVscaleX
p1770
aVscaleY
p1771
aVscaleZ
p1772
aaF0
aF0
aF0
aF0
aF0
aF0
aF1
aF1
aF1
aa(lp1773
Vponytail_dyn_anim
p1774
a(lp1775
VtranslateX
p1776
aVtranslateY
p1777
aVtranslateZ
p1778
aVrotateX
p1779
aVrotateY
p1780
aVrotateZ
p1781
aVchainAttach
p1782
aVchainStartEnvelope
p1783
aVchainStartFrame
p1784
aVchainStiffness
p1785
aVchainDamping
p1786
aVchainGravity
p1787
aVchainIteration
p1788
aVchainCollide
p1789
aVchainWidthBase
p1790
aVchainWidthExtremity
p1791
aVchainCollideGround
p1792
aVchainCollideGroundHeight
p1793
aaF0
aF0
aF0
aF0
aF0
aF0
aI1
aF1
aF1
aF0.10000000000000001
aF0.20000000000000001
aF1
aI1
aI00
aF1
aF1
aI00
aF0
aa(lp1794
Vponytail_ik_2_anim
p1795
a(lp1796
VtranslateX
p1797
aVtranslateY
p1798
aVtranslateZ
p1799
aVrotateX
p1800
aVrotateY
p1801
aVrotateZ
p1802
aaF-1.1102230246251565e-16
aF0
aF0
aF0
aF0
aF0
aa(lp1803
Vponytail_ik_3_anim
p1804
a(lp1805
VtranslateX
p1806
aVtranslateY
p1807
aVtranslateZ
p1808
aVrotateX
p1809
aVrotateY
p1810
aVrotateZ
p1811
aVclusterControlVis
p1812
aaF0
aF0
aF0
aF0
aF0
aF0
aI00
aa(lp1813
Vponytail_ik_base_anim
p1814
a(lp1815
VtranslateX
p1816
aVtranslateY
p1817
aVtranslateZ
p1818
aVrotateX
p1819
aVrotateY
p1820
aVrotateZ
p1821
aVglobal_scale
p1822
aaF0
aF0
aF0
aF0
aF0
aF0
aF1
aa(lp1823
Vfk_ponytail_01_anim
p1824
a(lp1825
VtranslateX
p1826
aVtranslateY
p1827
aVtranslateZ
p1828
aVrotateX
p1829
aVrotateY
p1830
aVrotateZ
p1831
aVglobal_scale
p1832
aVlagMode
p1833
aaF0
aF0
aF-2.8421709430404007e-14
aF0
aF0
aF0
aF1
aF0
aa(lp1834
Vponytail_cv_0_anim
p1835
a(lp1836
VtranslateX
p1837
aVtranslateY
p1838
aVtranslateZ
p1839
aaF0
aF0
aF0
aa(lp1840
Vfk_ponytail_02_anim
p1841
a(lp1842
VtranslateX
p1843
aVtranslateY
p1844
aVtranslateZ
p1845
aVrotateX
p1846
aVrotateY
p1847
aVrotateZ
p1848
aaF0
aF0
aF0
aF0
aF0
aF0
aa(lp1849
Vponytail_cv_1_anim
p1850
a(lp1851
VtranslateX
p1852
aVtranslateY
p1853
aVtranslateZ
p1854
aaF0
aF0
aF0
aa(lp1855
Vfk_ponytail_03_anim
p1856
a(lp1857
VtranslateX
p1858
aVtranslateY
p1859
aVtranslateZ
p1860
aVrotateX
p1861
aVrotateY
p1862
aVrotateZ
p1863
aaF0
aF0
aF0
aF0
aF0
aF0
aa(lp1864
Vponytail_cv_2_anim
p1865
a(lp1866
VtranslateX
p1867
aVtranslateY
p1868
aVtranslateZ
p1869
aaF0
aF0
aF0
aa(lp1870
Vfk_ponytail_04_anim
p1871
a(lp1872
VtranslateX
p1873
aVtranslateY
p1874
aVtranslateZ
p1875
aVrotateX
p1876
aVrotateY
p1877
aVrotateZ
p1878
aaF0
aF0
aF0
aF0
aF0
aF0
aa(lp1879
Vponytail_cv_3_anim
p1880
a(lp1881
VtranslateX
p1882
aVtranslateY
p1883
aVtranslateZ
p1884
aaF0
aF0
aF0
aa(lp1885
Vscarf_back_anim
p1886
a(lp1887
VtranslateX
p1888
aVtranslateY
p1889
aVtranslateZ
p1890
aVrotateX
p1891
aVrotateY
p1892
aVrotateZ
p1893
aVscaleX
p1894
aVscaleY
p1895
aVscaleZ
p1896
aaF0
aF0
aF0
aF0
aF0
aF0
aF1
aF1
aF1
aa(lp1897
Vscarf_front_anim
p1898
a(lp1899
VtranslateX
p1900
aVtranslateY
p1901
aVtranslateZ
p1902
aVrotateX
p1903
aVrotateY
p1904
aVrotateZ
p1905
aVscaleX
p1906
aVscaleY
p1907
aVscaleZ
p1908
aaF0
aF0
aF0
aF0
aF0
aF0
aF1
aF1
aF1
aa(lp1909
Vscarf_l_anim
p1910
a(lp1911
VtranslateX
p1912
aVtranslateY
p1913
aVtranslateZ
p1914
aVrotateX
p1915
aVrotateY
p1916
aVrotateZ
p1917
aVscaleX
p1918
aVscaleY
p1919
aVscaleZ
p1920
aaF0
aF0
aF0
aF0
aF0
aF0
aF1
aF1
aF1
aa(lp1921
Vscarf_r_anim
p1922
a(lp1923
VtranslateX
p1924
aVtranslateY
p1925
aVtranslateZ
p1926
aVrotateX
p1927
aVrotateY
p1928
aVrotateZ
p1929
aVscaleX
p1930
aVscaleY
p1931
aVscaleZ
p1932
aaF0
aF0
aF0
aF0
aF0
aF0
aF1
aF1
aF1
aa(lp1933
Vscarf_tail_dyn_anim
p1934
a(lp1935
VtranslateX
p1936
aVtranslateY
p1937
aVtranslateZ
p1938
aVrotateX
p1939
aVrotateY
p1940
aVrotateZ
p1941
aVchainAttach
p1942
aVchainStartEnvelope
p1943
aVchainStartFrame
p1944
aVchainStiffness
p1945
aVchainDamping
p1946
aVchainGravity
p1947
aVchainIteration
p1948
aVchainCollide
p1949
aVchainWidthBase
p1950
aVchainWidthExtremity
p1951
aVchainCollideGround
p1952
aVchainCollideGroundHeight
p1953
aaF0
aF0
aF0
aF0
aF0
aF0
aI1
aF1
aF1
aF0.10000000000000001
aF0.20000000000000001
aF1
aI1
aI00
aF1
aF1
aI00
aF0
aa(lp1954
Vscarf_tail_ik_2_anim
p1955
a(lp1956
VtranslateX
p1957
aVtranslateY
p1958
aVtranslateZ
p1959
aVrotateX
p1960
aVrotateY
p1961
aVrotateZ
p1962
aaF0
aF0
aF0
aF0
aF0
aF0
aa(lp1963
Vscarf_tail_ik_3_anim
p1964
a(lp1965
VtranslateX
p1966
aVtranslateY
p1967
aVtranslateZ
p1968
aVrotateX
p1969
aVrotateY
p1970
aVrotateZ
p1971
aVclusterControlVis
p1972
aaF0
aF0
aF0
aF0
aF0
aF0
aI00
aa(lp1973
Vscarf_tail_ik_base_anim
p1974
a(lp1975
VtranslateX
p1976
aVtranslateY
p1977
aVtranslateZ
p1978
aVrotateX
p1979
aVrotateY
p1980
aVrotateZ
p1981
aVglobal_scale
p1982
aaF0
aF0
aF0
aF0
aF0
aF0
aF1
aa(lp1983
Vfk_scarf_tail_01_anim
p1984
a(lp1985
VtranslateX
p1986
aVtranslateY
p1987
aVtranslateZ
p1988
aVrotateX
p1989
aVrotateY
p1990
aVrotateZ
p1991
aVglobal_scale
p1992
aVlagMode
p1993
aaF0
aF0
aF0
aF0
aF0
aF0
aF1
aF0
aa(lp1994
Vscarf_tail_cv_0_anim
p1995
a(lp1996
VtranslateX
p1997
aVtranslateY
p1998
aVtranslateZ
p1999
aaF0
aF0
aF0
aa(lp2000
Vfk_scarf_tail_02_anim
p2001
a(lp2002
VtranslateX
p2003
aVtranslateY
p2004
aVtranslateZ
p2005
aVrotateX
p2006
aVrotateY
p2007
aVrotateZ
p2008
aaF0
aF0
aF0
aF0
aF0
aF0
aa(lp2009
Vscarf_tail_cv_1_anim
p2010
a(lp2011
VtranslateX
p2012
aVtranslateY
p2013
aVtranslateZ
p2014
aaF0
aF0
aF0
aa(lp2015
Vfk_scarf_tail_03_anim
p2016
a(lp2017
VtranslateX
p2018
aVtranslateY
p2019
aVtranslateZ
p2020
aVrotateX
p2021
aVrotateY
p2022
aVrotateZ
p2023
aaF0
aF0
aF0
aF0
aF0
aF0
aa(lp2024
Vscarf_tail_cv_2_anim
p2025
a(lp2026
VtranslateX
p2027
aVtranslateY
p2028
aVtranslateZ
p2029
aaF0
aF0
aF0
aa(lp2030
Vfk_scarf_tail_04_anim
p2031
a(lp2032
VtranslateX
p2033
aVtranslateY
p2034
aVtranslateZ
p2035
aVrotateX
p2036
aVrotateY
p2037
aVrotateZ
p2038
aaF0
aF0
aF0
aF0
aF0
aF0
aa(lp2039
Vscarf_tail_cv_3_anim
p2040
a(lp2041
VtranslateX
p2042
aVtranslateY
p2043
aVtranslateZ
p2044
aaF0
aF0
aF0
aa(lp2045
Vfk_scarf_tail_05_anim
p2046
a(lp2047
VtranslateX
p2048
aVtranslateY
p2049
aVtranslateZ
p2050
aVrotateX
p2051
aVrotateY
p2052
aVrotateZ
p2053
aaF0
aF0
aF0
aF0
aF0
aF0
aa(lp2054
Vscarf_tail_cv_4_anim
p2055
a(lp2056
VtranslateX
p2057
aVtranslateY
p2058
aVtranslateZ
p2059
aaF0
aF0
aF0
aa(lp2060
Vfk_scarf_tail_06_anim
p2061
a(lp2062
VtranslateX
p2063
aVtranslateY
p2064
aVtranslateZ
p2065
aVrotateX
p2066
aVrotateY
p2067
aVrotateZ
p2068
aaF0
aF0
aF0
aF0
aF0
aF0
aa(lp2069
Vscarf_tail_cv_5_anim
p2070
a(lp2071
VtranslateX
p2072
aVtranslateY
p2073
aVtranslateZ
p2074
aaF0
aF0
aF0
aa(lp2075
Vshoulderpad_l_anim
p2076
a(lp2077
VtranslateX
p2078
aVtranslateY
p2079
aVtranslateZ
p2080
aVrotateX
p2081
aVrotateY
p2082
aVrotateZ
p2083
aVscaleX
p2084
aVscaleY
p2085
aVscaleZ
p2086
aaF0
aF0
aF0
aF0
aF0
aF0
aF1
aF1
aF1
aa(lp2087
Vshoulderpad_r_anim
p2088
a(lp2089
VtranslateX
p2090
aVtranslateY
p2091
aVtranslateZ
p2092
aVrotateX
p2093
aVrotateY
p2094
aVrotateZ
p2095
aVscaleX
p2096
aVscaleY
p2097
aVscaleZ
p2098
aaF0
aF0
aF0
aF0
aF0
aF0
aF1
aF1
aF1
aa(lp2099
Vskirt_back_dyn_anim
p2100
a(lp2101
VtranslateX
p2102
aVtranslateY
p2103
aVtranslateZ
p2104
aVrotateX
p2105
aVrotateY
p2106
aVrotateZ
p2107
aVchainAttach
p2108
aVchainStartEnvelope
p2109
aVchainStartFrame
p2110
aVchainStiffness
p2111
aVchainDamping
p2112
aVchainGravity
p2113
aVchainIteration
p2114
aVchainCollide
p2115
aVchainWidthBase
p2116
aVchainWidthExtremity
p2117
aVchainCollideGround
p2118
aVchainCollideGroundHeight
p2119
aaF0
aF0
aF0
aF0
aF0
aF0
aI1
aF1
aF1
aF0.10000000000000001
aF0.20000000000000001
aF1
aI1
aI00
aF1
aF1
aI00
aF0
aa(lp2120
Vskirt_back_ik_2_anim
p2121
a(lp2122
VtranslateX
p2123
aVtranslateY
p2124
aVtranslateZ
p2125
aVrotateX
p2126
aVrotateY
p2127
aVrotateZ
p2128
aaF-1.5777218104420236e-30
aF-1.4210854715202004e-14
aF1.8873791418627661e-15
aF0
aF0
aF0
aa(lp2129
Vskirt_back_ik_3_anim
p2130
a(lp2131
VtranslateX
p2132
aVtranslateY
p2133
aVtranslateZ
p2134
aVrotateX
p2135
aVrotateY
p2136
aVrotateZ
p2137
aVclusterControlVis
p2138
aaF0
aF0
aF-8.8817841970012523e-16
aF0
aF0
aF0
aI00
aa(lp2139
Vskirt_back_ik_base_anim
p2140
a(lp2141
VtranslateX
p2142
aVtranslateY
p2143
aVtranslateZ
p2144
aVrotateX
p2145
aVrotateY
p2146
aVrotateZ
p2147
aVglobal_scale
p2148
aaF0
aF0
aF0
aF0
aF0
aF0
aF1
aa(lp2149
Vfk_skirt_back_01_anim
p2150
a(lp2151
VtranslateX
p2152
aVtranslateY
p2153
aVtranslateZ
p2154
aVrotateX
p2155
aVrotateY
p2156
aVrotateZ
p2157
aVglobal_scale
p2158
aVlagMode
p2159
aaF1.5777218104420236e-30
aF0
aF0
aF0
aF0
aF0
aF1
aF0
aa(lp2160
Vskirt_back_cv_0_anim
p2161
a(lp2162
VtranslateX
p2163
aVtranslateY
p2164
aVtranslateZ
p2165
aaF0
aF0
aF0
aa(lp2166
Vfk_skirt_back_02_anim
p2167
a(lp2168
VtranslateX
p2169
aVtranslateY
p2170
aVtranslateZ
p2171
aVrotateX
p2172
aVrotateY
p2173
aVrotateZ
p2174
aaF0
aF-1.4210854715202004e-14
aF1.4210854715202004e-14
aF0
aF0
aF0
aa(lp2175
Vskirt_back_cv_1_anim
p2176
a(lp2177
VtranslateX
p2178
aVtranslateY
p2179
aVtranslateZ
p2180
aaF0
aF0
aF0
aa(lp2181
Vfk_skirt_back_03_anim
p2182
a(lp2183
VtranslateX
p2184
aVtranslateY
p2185
aVtranslateZ
p2186
aVrotateX
p2187
aVrotateY
p2188
aVrotateZ
p2189
aaF4.7331654313260708e-30
aF4.2632564145606011e-14
aF1.5543122344752192e-15
aF0
aF0
aF0
aa(lp2190
Vskirt_back_cv_2_anim
p2191
a(lp2192
VtranslateX
p2193
aVtranslateY
p2194
aVtranslateZ
p2195
aaF0
aF0
aF0
aa(lp2196
Vskirt_front_dyn_anim
p2197
a(lp2198
VtranslateX
p2199
aVtranslateY
p2200
aVtranslateZ
p2201
aVrotateX
p2202
aVrotateY
p2203
aVrotateZ
p2204
aVchainAttach
p2205
aVchainStartEnvelope
p2206
aVchainStartFrame
p2207
aVchainStiffness
p2208
aVchainDamping
p2209
aVchainGravity
p2210
aVchainIteration
p2211
aVchainCollide
p2212
aVchainWidthBase
p2213
aVchainWidthExtremity
p2214
aVchainCollideGround
p2215
aVchainCollideGroundHeight
p2216
aaF0
aF0
aF0
aF0
aF0
aF0
aI1
aF1
aF1
aF0.10000000000000001
aF0.20000000000000001
aF1
aI1
aI00
aF1
aF1
aI00
aF0
aa(lp2217
Vskirt_front_ik_2_anim
p2218
a(lp2219
VtranslateX
p2220
aVtranslateY
p2221
aVtranslateZ
p2222
aVrotateX
p2223
aVrotateY
p2224
aVrotateZ
p2225
aaF7.1054273576010019e-15
aF0
aF0
aF0
aF0
aF0
aa(lp2226
Vskirt_front_ik_3_anim
p2227
a(lp2228
VtranslateX
p2229
aVtranslateY
p2230
aVtranslateZ
p2231
aVrotateX
p2232
aVrotateY
p2233
aVrotateZ
p2234
aVclusterControlVis
p2235
aaF7.1054273576010019e-15
aF2.8421709430404007e-14
aF0
aF0
aF0
aF0
aI00
aa(lp2236
Vskirt_front_ik_base_anim
p2237
a(lp2238
VtranslateX
p2239
aVtranslateY
p2240
aVtranslateZ
p2241
aVrotateX
p2242
aVrotateY
p2243
aVrotateZ
p2244
aVglobal_scale
p2245
aaF-1.7763568394002505e-15
aF1.4210854715202004e-14
aF-3.5527136788005009e-15
aF0
aF0
aF0
aF1.0000000000000002
aa(lp2246
Vfk_skirt_front_01_anim
p2247
a(lp2248
VtranslateX
p2249
aVtranslateY
p2250
aVtranslateZ
p2251
aVrotateX
p2252
aVrotateY
p2253
aVrotateZ
p2254
aVglobal_scale
p2255
aVlagMode
p2256
aaF0
aF-1.4210854715202004e-14
aF0
aF0
aF0
aF0
aF0.99999999999999978
aF0
aa(lp2257
Vskirt_front_cv_0_anim
p2258
a(lp2259
VtranslateX
p2260
aVtranslateY
p2261
aVtranslateZ
p2262
aaF0
aF0
aF0
aa(lp2263
Vfk_skirt_front_02_anim
p2264
a(lp2265
VtranslateX
p2266
aVtranslateY
p2267
aVtranslateZ
p2268
aVrotateX
p2269
aVrotateY
p2270
aVrotateZ
p2271
aaF0
aF-1.4210854715202004e-14
aF3.5527136788005009e-15
aF0
aF0
aF0
aa(lp2272
Vskirt_front_cv_1_anim
p2273
a(lp2274
VtranslateX
p2275
aVtranslateY
p2276
aVtranslateZ
p2277
aaF0
aF0
aF0
aa(lp2278
Vfk_skirt_front_03_anim
p2279
a(lp2280
VtranslateX
p2281
aVtranslateY
p2282
aVtranslateZ
p2283
aVrotateX
p2284
aVrotateY
p2285
aVrotateZ
p2286
aaF-7.1054273576010019e-15
aF-1.4210854715202004e-14
aF7.1054273576010019e-15
aF0
aF0
aF0
aa(lp2287
Vskirt_front_cv_2_anim
p2288
a(lp2289
VtranslateX
p2290
aVtranslateY
p2291
aVtranslateZ
p2292
aaF0
aF0
aF0
aa(lp2293
Vskirt_l_dyn_anim
p2294
a(lp2295
VtranslateX
p2296
aVtranslateY
p2297
aVtranslateZ
p2298
aVrotateX
p2299
aVrotateY
p2300
aVrotateZ
p2301
aVchainAttach
p2302
aVchainStartEnvelope
p2303
aVchainStartFrame
p2304
aVchainStiffness
p2305
aVchainDamping
p2306
aVchainGravity
p2307
aVchainIteration
p2308
aVchainCollide
p2309
aVchainWidthBase
p2310
aVchainWidthExtremity
p2311
aVchainCollideGround
p2312
aVchainCollideGroundHeight
p2313
aaF0
aF0
aF0
aF0
aF0
aF0
aI1
aF1
aF1
aF0.10000000000000001
aF0.20000000000000001
aF1
aI1
aI00
aF1
aF1
aI00
aF0
aa(lp2314
Vskirt_l_ik_2_anim
p2315
a(lp2316
VtranslateX
p2317
aVtranslateY
p2318
aVtranslateZ
p2319
aVrotateX
p2320
aVrotateY
p2321
aVrotateZ
p2322
aaF2.2204460492503131e-16
aF1.4210854715202004e-14
aF0
aF0
aF0
aF0
aa(lp2323
Vskirt_l_ik_3_anim
p2324
a(lp2325
VtranslateX
p2326
aVtranslateY
p2327
aVtranslateZ
p2328
aVrotateX
p2329
aVrotateY
p2330
aVrotateZ
p2331
aVclusterControlVis
p2332
aaF0
aF0
aF-5.3290705182007514e-15
aF0
aF0
aF0
aI00
aa(lp2333
Vskirt_l_ik_base_anim
p2334
a(lp2335
VtranslateX
p2336
aVtranslateY
p2337
aVtranslateZ
p2338
aVrotateX
p2339
aVrotateY
p2340
aVrotateZ
p2341
aVglobal_scale
p2342
aaF-2.2204460492503131e-16
aF1.4210854715202004e-14
aF-7.1054273576010019e-15
aF0
aF0
aF0
aF1
aa(lp2343
Vfk_skirt_l_01_anim
p2344
a(lp2345
VtranslateX
p2346
aVtranslateY
p2347
aVtranslateZ
p2348
aVrotateX
p2349
aVrotateY
p2350
aVrotateZ
p2351
aVglobal_scale
p2352
aVlagMode
p2353
aaF0
aF0
aF-7.1054273576010019e-15
aF0
aF0
aF0
aF1
aF0
aa(lp2354
Vskirt_l_cv_0_anim
p2355
a(lp2356
VtranslateX
p2357
aVtranslateY
p2358
aVtranslateZ
p2359
aaF0
aF0
aF0
aa(lp2360
Vfk_skirt_l_02_anim
p2361
a(lp2362
VtranslateX
p2363
aVtranslateY
p2364
aVtranslateZ
p2365
aVrotateX
p2366
aVrotateY
p2367
aVrotateZ
p2368
aaF0
aF0
aF-3.5527136788005009e-15
aF0
aF0
aF0
aa(lp2369
Vskirt_l_cv_1_anim
p2370
a(lp2371
VtranslateX
p2372
aVtranslateY
p2373
aVtranslateZ
p2374
aaF0
aF0
aF0
aa(lp2375
Vfk_skirt_l_03_anim
p2376
a(lp2377
VtranslateX
p2378
aVtranslateY
p2379
aVtranslateZ
p2380
aVrotateX
p2381
aVrotateY
p2382
aVrotateZ
p2383
aaF2.2204460492503131e-16
aF0
aF-1.7763568394002505e-15
aF0
aF0
aF0
aa(lp2384
Vskirt_l_cv_2_anim
p2385
a(lp2386
VtranslateX
p2387
aVtranslateY
p2388
aVtranslateZ
p2389
aaF0
aF0
aF0
aa(lp2390
Vskirt_r_anim
p2391
a(lp2392
VtranslateX
p2393
aVtranslateY
p2394
aVtranslateZ
p2395
aVrotateX
p2396
aVrotateY
p2397
aVrotateZ
p2398
aVscaleX
p2399
aVscaleY
p2400
aVscaleZ
p2401
aaF0
aF0
aF0
aF0
aF0
aF0
aF1
aF1
aF1
aa(lp2402
VthighPouch_r_anim
p2403
a(lp2404
VtranslateX
p2405
aVtranslateY
p2406
aVtranslateZ
p2407
aVrotateX
p2408
aVrotateY
p2409
aVrotateZ
p2410
aVchainAttach
p2411
aVchainStartEnvelope
p2412
aVchainStartFrame
p2413
aVchainStiffness
p2414
aVchainDamping
p2415
aVchainGravity
p2416
aVchainIteration
p2417
aVchainCollide
p2418
aVchainWidthBase
p2419
aVchainWidthExtremity
p2420
aVchainCollideGround
p2421
aVchainCollideGroundHeight
p2422
aaF0
aF2.2204460492503131e-16
aF0
aF0
aF0
aF0
aI1
aF1
aF1
aF0.10000000000000001
aF0.20000000000000001
aF1
aI1
aI00
aF1
aF1
aI00
aF0
aa(lp2423
Vtongue_01_anim
p2424
a(lp2425
VtranslateX
p2426
aVtranslateY
p2427
aVtranslateZ
p2428
aVrotateX
p2429
aVrotateY
p2430
aVrotateZ
p2431
aVscaleX
p2432
aVscaleY
p2433
aVscaleZ
p2434
aaF0
aF0
aF0
aF0
aF0
aF0
aF1
aF1
aF1
aa(lp2435
Vtongue_02_anim
p2436
a(lp2437
VtranslateX
p2438
aVtranslateY
p2439
aVtranslateZ
p2440
aVrotateX
p2441
aVrotateY
p2442
aVrotateZ
p2443
aVscaleX
p2444
aVscaleY
p2445
aVscaleZ
p2446
aaF0
aF0
aF0
aF0
aF0
aF0
aF1
aF1
aF1
aa(lp2447
VwaistPouch_l_anim
p2448
a(lp2449
VtranslateX
p2450
aVtranslateY
p2451
aVtranslateZ
p2452
aVrotateX
p2453
aVrotateY
p2454
aVrotateZ
p2455
aVchainAttach
p2456
aVchainStartEnvelope
p2457
aVchainStartFrame
p2458
aVchainStiffness
p2459
aVchainDamping
p2460
aVchainGravity
p2461
aVchainIteration
p2462
aVchainCollide
p2463
aVchainWidthBase
p2464
aVchainWidthExtremity
p2465
aVchainCollideGround
p2466
aVchainCollideGroundHeight
p2467
aaF0
aF0
aF0
aF0
aF0
aF0
aI1
aF1
aF1
aF0.10000000000000001
aF0.20000000000000001
aF1
aI1
aI00
aF1
aF1
aI00
aF0
aa(lp2468
VarmCloth_01_l_anim_space_switcher
p2469
a(lp2470
Vvisibility
p2471
aVtranslateX
p2472
aVtranslateY
p2473
aVtranslateZ
p2474
aVrotateX
p2475
aVrotateY
p2476
aVrotateZ
p2477
aVscaleX
p2478
aVscaleY
p2479
aVscaleZ
p2480
aVspace_world
p2481
aaI01
aF7.1054273576010019e-15
aF8.8817841970012523e-16
aF2.8421709430404007e-14
aF0
aF0
aF0
aF1
aF1
aF1
aF0
aa(lp2482
Vbelt_pelvis_l_anim_space_switcher
p2483
a(lp2484
Vvisibility
p2485
aVtranslateX
p2486
aVtranslateY
p2487
aVtranslateZ
p2488
aVrotateX
p2489
aVrotateY
p2490
aVrotateZ
p2491
aVscaleX
p2492
aVscaleY
p2493
aVscaleZ
p2494
aVspace_world
p2495
aaI01
aF0
aF0
aF0
aF0
aF0
aF0
aF1
aF1
aF1
aF0
aa(lp2496
Vbelt_thigh_r_anim_space_switcher
p2497
a(lp2498
Vvisibility
p2499
aVtranslateX
p2500
aVtranslateY
p2501
aVtranslateZ
p2502
aVrotateX
p2503
aVrotateY
p2504
aVrotateZ
p2505
aVscaleX
p2506
aVscaleY
p2507
aVscaleZ
p2508
aVspace_world
p2509
aaI01
aF8.8817841970012523e-16
aF-7.7715611723760958e-16
aF0
aF0
aF0
aF0
aF1
aF1
aF1
aF0
aa(lp2510
Vbody_anim_space_switcher
p2511
a(lp2512
Vvisibility
p2513
aVtranslateX
p2514
aVtranslateY
p2515
aVtranslateZ
p2516
aVrotateX
p2517
aVrotateY
p2518
aVrotateZ
p2519
aVscaleX
p2520
aVscaleY
p2521
aVscaleZ
p2522
aVspace_world
p2523
aaI01
aF0
aF0
aF0
aF0
aF0
aF0
aF1
aF1
aF1
aF0
aa(lp2524
Vboot_ankle_l_anim_space_switcher
p2525
a(lp2526
Vvisibility
p2527
aVtranslateX
p2528
aVtranslateY
p2529
aVtranslateZ
p2530
aVrotateX
p2531
aVrotateY
p2532
aVrotateZ
p2533
aVscaleX
p2534
aVscaleY
p2535
aVscaleZ
p2536
aVspace_world
p2537
aaI01
aF1.7763568394002505e-15
aF0
aF-3.5527136788005009e-15
aF0
aF0
aF0
aF1
aF1.0000000000000002
aF1.0000000000000002
aF0
aa(lp2538
Vboot_ankle_r_anim_space_switcher
p2539
a(lp2540
Vvisibility
p2541
aVtranslateX
p2542
aVtranslateY
p2543
aVtranslateZ
p2544
aVrotateX
p2545
aVrotateY
p2546
aVrotateZ
p2547
aVscaleX
p2548
aVscaleY
p2549
aVscaleZ
p2550
aVspace_world
p2551
aaI01
aF-1.7763568394002505e-15
aF0
aF-7.1054273576010019e-15
aF0
aF0
aF0
aF1.0000000000000002
aF1.0000000000000002
aF1.0000000000000002
aF0
aa(lp2552
Vbracer_top_l_anim_space_switcher
p2553
a(lp2554
Vvisibility
p2555
aVtranslateX
p2556
aVtranslateY
p2557
aVtranslateZ
p2558
aVrotateX
p2559
aVrotateY
p2560
aVrotateZ
p2561
aVscaleX
p2562
aVscaleY
p2563
aVscaleZ
p2564
aVspace_world
p2565
aaI01
aF0
aF-1.7763568394002505e-15
aF2.8421709430404007e-14
aF0
aF0
aF0
aF1
aF0.99999999999999989
aF1.0000000000000002
aF0
aa(lp2566
Vbracer_top_r_anim_space_switcher
p2567
a(lp2568
Vvisibility
p2569
aVtranslateX
p2570
aVtranslateY
p2571
aVtranslateZ
p2572
aVrotateX
p2573
aVrotateY
p2574
aVrotateZ
p2575
aVscaleX
p2576
aVscaleY
p2577
aVscaleZ
p2578
aVspace_world
p2579
aaI01
aF0
aF0
aF-2.8421709430404007e-14
aF0
aF0
aF0
aF1
aF1
aF1.0000000000000002
aF0
aa(lp2580
Vchest_ik_anim_space_switcher
p2581
a(lp2582
Vvisibility
p2583
aVtranslateX
p2584
aVtranslateY
p2585
aVtranslateZ
p2586
aVrotateX
p2587
aVrotateY
p2588
aVrotateZ
p2589
aVscaleX
p2590
aVscaleY
p2591
aVscaleZ
p2592
aVspace_world
p2593
aVspace_chest_ik_world_aligned
p2594
aaI01
aF0
aF0
aF0
aF0
aF0
aF0
aF1
aF1
aF1
aF0
aF0
aa(lp2595
Veye_l_anim_space_switcher
p2596
a(lp2597
Vvisibility
p2598
aVtranslateX
p2599
aVtranslateY
p2600
aVtranslateZ
p2601
aVrotateX
p2602
aVrotateY
p2603
aVrotateZ
p2604
aVscaleX
p2605
aVscaleY
p2606
aVscaleZ
p2607
aVspace_world
p2608
aaI01
aF0
aF0
aF0
aF0
aF0
aF0
aF1
aF1
aF1
aF0
aa(lp2609
Veye_r_anim_space_switcher
p2610
a(lp2611
Vvisibility
p2612
aVtranslateX
p2613
aVtranslateY
p2614
aVtranslateZ
p2615
aVrotateX
p2616
aVrotateY
p2617
aVrotateZ
p2618
aVscaleX
p2619
aVscaleY
p2620
aVscaleZ
p2621
aVspace_world
p2622
aaI01
aF0
aF0
aF0
aF0
aF0
aF0
aF1
aF1
aF1
aF0
aa(lp2623
Veyebrow_01_l_anim_space_switcher
p2624
a(lp2625
Vvisibility
p2626
aVtranslateX
p2627
aVtranslateY
p2628
aVtranslateZ
p2629
aVrotateX
p2630
aVrotateY
p2631
aVrotateZ
p2632
aVscaleX
p2633
aVscaleY
p2634
aVscaleZ
p2635
aVspace_world
p2636
aaI01
aF0
aF0
aF0
aF0
aF0
aF0
aF1
aF1
aF1
aF0
aa(lp2637
Veyebrow_01_r_anim_space_switcher
p2638
a(lp2639
Vvisibility
p2640
aVtranslateX
p2641
aVtranslateY
p2642
aVtranslateZ
p2643
aVrotateX
p2644
aVrotateY
p2645
aVrotateZ
p2646
aVscaleX
p2647
aVscaleY
p2648
aVscaleZ
p2649
aVspace_world
p2650
aaI01
aF4.4408920985006262e-16
aF-1.7763568394002505e-15
aF0
aF0
aF0
aF0
aF1
aF1
aF1
aF0
aa(lp2651
Veyebrow_02_l_anim_space_switcher
p2652
a(lp2653
Vvisibility
p2654
aVtranslateX
p2655
aVtranslateY
p2656
aVtranslateZ
p2657
aVrotateX
p2658
aVrotateY
p2659
aVrotateZ
p2660
aVscaleX
p2661
aVscaleY
p2662
aVscaleZ
p2663
aVspace_world
p2664
aaI01
aF0
aF0
aF0
aF0
aF0
aF0
aF1
aF1
aF1
aF0
aa(lp2665
Veyebrow_02_r_anim_space_switcher
p2666
a(lp2667
Vvisibility
p2668
aVtranslateX
p2669
aVtranslateY
p2670
aVtranslateZ
p2671
aVrotateX
p2672
aVrotateY
p2673
aVrotateZ
p2674
aVscaleX
p2675
aVscaleY
p2676
aVscaleZ
p2677
aVspace_world
p2678
aaI01
aF8.8817841970012523e-16
aF1.7763568394002505e-15
aF0
aF0
aF0
aF0
aF1
aF1
aF1
aF0
aa(lp2679
Veyebrow_03_l_anim_space_switcher
p2680
a(lp2681
Vvisibility
p2682
aVtranslateX
p2683
aVtranslateY
p2684
aVtranslateZ
p2685
aVrotateX
p2686
aVrotateY
p2687
aVrotateZ
p2688
aVscaleX
p2689
aVscaleY
p2690
aVscaleZ
p2691
aVspace_world
p2692
aaI01
aF0
aF0
aF0
aF0
aF0
aF0
aF1
aF1
aF1
aF0
aa(lp2693
Veyebrow_03_r_anim_space_switcher
p2694
a(lp2695
Vvisibility
p2696
aVtranslateX
p2697
aVtranslateY
p2698
aVtranslateZ
p2699
aVrotateX
p2700
aVrotateY
p2701
aVrotateZ
p2702
aVscaleX
p2703
aVscaleY
p2704
aVscaleZ
p2705
aVspace_world
p2706
aaI01
aF0
aF-8.8817841970012523e-16
aF-2.8421709430404007e-14
aF0
aF0
aF0
aF1
aF1
aF1
aF0
aa(lp2707
Veyelid_lower_l_anim_space_switcher
p2708
a(lp2709
Vvisibility
p2710
aVtranslateX
p2711
aVtranslateY
p2712
aVtranslateZ
p2713
aVrotateX
p2714
aVrotateY
p2715
aVrotateZ
p2716
aVscaleX
p2717
aVscaleY
p2718
aVscaleZ
p2719
aVspace_world
p2720
aaI01
aF0
aF0
aF0
aF0
aF0
aF0
aF1
aF1
aF1
aF0
aa(lp2721
Veyelid_lower_r_anim_space_switcher
p2722
a(lp2723
Vvisibility
p2724
aVtranslateX
p2725
aVtranslateY
p2726
aVtranslateZ
p2727
aVrotateX
p2728
aVrotateY
p2729
aVrotateZ
p2730
aVscaleX
p2731
aVscaleY
p2732
aVscaleZ
p2733
aVspace_world
p2734
aaI01
aF0
aF0
aF-2.8421709430404007e-14
aF0
aF0
aF0
aF1
aF1
aF1
aF0
aa(lp2735
Veyelid_upper_l_anim_space_switcher
p2736
a(lp2737
Vvisibility
p2738
aVtranslateX
p2739
aVtranslateY
p2740
aVtranslateZ
p2741
aVrotateX
p2742
aVrotateY
p2743
aVrotateZ
p2744
aVscaleX
p2745
aVscaleY
p2746
aVscaleZ
p2747
aVspace_world
p2748
aaI01
aF0
aF0
aF0
aF0
aF0
aF0
aF1
aF1
aF1
aF0
aa(lp2749
Veyelid_upper_r_anim_space_switcher
p2750
a(lp2751
Vvisibility
p2752
aVtranslateX
p2753
aVtranslateY
p2754
aVtranslateZ
p2755
aVrotateX
p2756
aVrotateY
p2757
aVrotateZ
p2758
aVscaleX
p2759
aVscaleY
p2760
aVscaleZ
p2761
aVspace_world
p2762
aaI01
aF0
aF0
aF-2.8421709430404007e-14
aF0
aF0
aF0
aF1
aF1
aF1
aF0
aa(lp2763
VhighBoot_top_l_anim_space_switcher
p2764
a(lp2765
Vvisibility
p2766
aVtranslateX
p2767
aVtranslateY
p2768
aVtranslateZ
p2769
aVrotateX
p2770
aVrotateY
p2771
aVrotateZ
p2772
aVscaleX
p2773
aVscaleY
p2774
aVscaleZ
p2775
aVspace_world
p2776
aaI01
aF0
aF0
aF0
aF0
aF0
aF0
aF1
aF1
aF1
aF0
aa(lp2777
VhighBoot_top_r_anim_space_switcher
p2778
a(lp2779
Vvisibility
p2780
aVtranslateX
p2781
aVtranslateY
p2782
aVtranslateZ
p2783
aVrotateX
p2784
aVrotateY
p2785
aVrotateZ
p2786
aVscaleX
p2787
aVscaleY
p2788
aVscaleZ
p2789
aVspace_world
p2790
aaI01
aF-1.7763568394002505e-15
aF-1.7763568394002505e-15
aF0
aF0
aF0
aF0
aF1
aF1
aF1
aF0
aa(lp2791
Vhip_cloth_01_anim_space_switcher
p2792
a(lp2793
Vvisibility
p2794
aVtranslateX
p2795
aVtranslateY
p2796
aVtranslateZ
p2797
aVrotateX
p2798
aVrotateY
p2799
aVrotateZ
p2800
aVscaleX
p2801
aVscaleY
p2802
aVscaleZ
p2803
aVspace_world
p2804
aaI01
aF0
aF0
aF0
aF0
aF0
aF0
aF1
aF1
aF1
aF0
aa(lp2805
Vhip_cloth_02_anim_space_switcher
p2806
a(lp2807
Vvisibility
p2808
aVtranslateX
p2809
aVtranslateY
p2810
aVtranslateZ
p2811
aVrotateX
p2812
aVrotateY
p2813
aVrotateZ
p2814
aVscaleX
p2815
aVscaleY
p2816
aVscaleZ
p2817
aVspace_world
p2818
aaI01
aF0
aF0
aF0
aF0
aF0
aF0
aF1
aF1
aF1
aF0
aa(lp2819
Vik_elbow_l_anim_space_switcher
p2820
a(lp2821
Vvisibility
p2822
aVtranslateX
p2823
aVtranslateY
p2824
aVtranslateZ
p2825
aVrotateX
p2826
aVrotateY
p2827
aVrotateZ
p2828
aVscaleX
p2829
aVscaleY
p2830
aVscaleZ
p2831
aVspace_world
p2832
aVspace_body_anim
p2833
aVspace_chest_ik_anim
p2834
aaI00
aF0
aF0
aF0
aF0
aF0
aF0
aF1
aF1
aF1
aF0
aF0
aF0
aa(lp2835
Vik_elbow_r_anim_space_switcher
p2836
a(lp2837
Vvisibility
p2838
aVtranslateX
p2839
aVtranslateY
p2840
aVtranslateZ
p2841
aVrotateX
p2842
aVrotateY
p2843
aVrotateZ
p2844
aVscaleX
p2845
aVscaleY
p2846
aVscaleZ
p2847
aVspace_world
p2848
aVspace_body_anim
p2849
aVspace_chest_ik_anim
p2850
aaI00
aF0
aF0
aF0
aF0
aF0
aF0
aF1
aF1
aF1
aF0
aF0
aF0
aa(lp2851
Vik_foot_anim_l_space_switcher
p2852
a(lp2853
Vvisibility
p2854
aVtranslateX
p2855
aVtranslateY
p2856
aVtranslateZ
p2857
aVrotateX
p2858
aVrotateY
p2859
aVrotateZ
p2860
aVscaleX
p2861
aVscaleY
p2862
aVscaleZ
p2863
aVspace_world
p2864
aVspace_body_anim
p2865
aaI01
aF0
aF0
aF0
aF0
aF0
aF0
aF1
aF1
aF1
aF0
aF0
aa(lp2866
Vik_foot_anim_r_space_switcher
p2867
a(lp2868
Vvisibility
p2869
aVtranslateX
p2870
aVtranslateY
p2871
aVtranslateZ
p2872
aVrotateX
p2873
aVrotateY
p2874
aVrotateZ
p2875
aVscaleX
p2876
aVscaleY
p2877
aVscaleZ
p2878
aVspace_world
p2879
aVspace_body_anim
p2880
aaI01
aF0
aF0
aF0
aF0
aF0
aF0
aF1
aF1
aF1
aF0
aF0
aa(lp2881
Vik_wrist_l_anim_space_switcher
p2882
a(lp2883
Vvisibility
p2884
aVtranslateX
p2885
aVtranslateY
p2886
aVtranslateZ
p2887
aVrotateX
p2888
aVrotateY
p2889
aVrotateZ
p2890
aVscaleX
p2891
aVscaleY
p2892
aVscaleZ
p2893
aVspace_world
p2894
aVspace_body_anim
p2895
aVspace_head_fk_anim
p2896
aVspace_chest_ik_anim
p2897
aaI00
aF0
aF0
aF0
aF0
aF0
aF0
aF1
aF1
aF1
aF0
aF0
aF0
aF0
aa(lp2898
Vik_wrist_r_anim_space_switcher
p2899
a(lp2900
Vvisibility
p2901
aVtranslateX
p2902
aVtranslateY
p2903
aVtranslateZ
p2904
aVrotateX
p2905
aVrotateY
p2906
aVrotateZ
p2907
aVscaleX
p2908
aVscaleY
p2909
aVscaleZ
p2910
aVspace_world
p2911
aVspace_body_anim
p2912
aVspace_head_fk_anim
p2913
aVspace_chest_ik_anim
p2914
aaI00
aF0
aF0
aF0
aF0
aF0
aF0
aF1
aF1
aF1
aF0
aF0
aF0
aF0
aa(lp2915
Vjaw_anim_space_switcher
p2916
a(lp2917
Vvisibility
p2918
aVtranslateX
p2919
aVtranslateY
p2920
aVtranslateZ
p2921
aVrotateX
p2922
aVrotateY
p2923
aVrotateZ
p2924
aVscaleX
p2925
aVscaleY
p2926
aVscaleZ
p2927
aVspace_world
p2928
aaI01
aF0
aF0
aF0
aF0
aF0
aF0
aF1
aF1
aF1
aF0
aa(lp2929
Vl_global_ik_anim_space_switcher
p2930
a(lp2931
Vvisibility
p2932
aVtranslateX
p2933
aVtranslateY
p2934
aVtranslateZ
p2935
aVrotateX
p2936
aVrotateY
p2937
aVrotateZ
p2938
aVscaleX
p2939
aVscaleY
p2940
aVscaleZ
p2941
aVspace_world
p2942
aaI01
aF0
aF0
aF0
aF0
aF0
aF0
aF1
aF1
aF1
aF0
aa(lp2943
Vlip_down_01_l_anim_space_switcher
p2944
a(lp2945
Vvisibility
p2946
aVtranslateX
p2947
aVtranslateY
p2948
aVtranslateZ
p2949
aVrotateX
p2950
aVrotateY
p2951
aVrotateZ
p2952
aVscaleX
p2953
aVscaleY
p2954
aVscaleZ
p2955
aVspace_world
p2956
aaI01
aF0
aF0
aF0
aF0
aF0
aF0
aF1
aF1
aF1
aF0
aa(lp2957
Vlip_down_01_r_anim_space_switcher
p2958
a(lp2959
Vvisibility
p2960
aVtranslateX
p2961
aVtranslateY
p2962
aVtranslateZ
p2963
aVrotateX
p2964
aVrotateY
p2965
aVrotateZ
p2966
aVscaleX
p2967
aVscaleY
p2968
aVscaleZ
p2969
aVspace_world
p2970
aaI01
aF-1.1102230246251565e-16
aF-1.7763568394002505e-15
aF0
aF0
aF0
aF0
aF1
aF1
aF1
aF0
aa(lp2971
Vlip_down_02_l_anim_space_switcher
p2972
a(lp2973
Vvisibility
p2974
aVtranslateX
p2975
aVtranslateY
p2976
aVtranslateZ
p2977
aVrotateX
p2978
aVrotateY
p2979
aVrotateZ
p2980
aVscaleX
p2981
aVscaleY
p2982
aVscaleZ
p2983
aVspace_world
p2984
aaI01
aF2.2204460492503131e-16
aF0
aF0
aF0
aF0
aF0
aF1
aF1
aF1
aF0
aa(lp2985
Vlip_down_02_r_anim_space_switcher
p2986
a(lp2987
Vvisibility
p2988
aVtranslateX
p2989
aVtranslateY
p2990
aVtranslateZ
p2991
aVrotateX
p2992
aVrotateY
p2993
aVrotateZ
p2994
aVscaleX
p2995
aVscaleY
p2996
aVscaleZ
p2997
aVspace_world
p2998
aaI01
aF0
aF1.7763568394002505e-15
aF-2.8421709430404007e-14
aF0
aF0
aF0
aF1
aF1
aF1
aF0
aa(lp2999
Vlip_down_anim_space_switcher
p3000
a(lp3001
Vvisibility
p3002
aVtranslateX
p3003
aVtranslateY
p3004
aVtranslateZ
p3005
aVrotateX
p3006
aVrotateY
p3007
aVrotateZ
p3008
aVscaleX
p3009
aVscaleY
p3010
aVscaleZ
p3011
aVspace_world
p3012
aaI01
aF0
aF0
aF0
aF0
aF0
aF0
aF1
aF1
aF1
aF0
aa(lp3013
Vlip_up_01_l_anim_space_switcher
p3014
a(lp3015
Vvisibility
p3016
aVtranslateX
p3017
aVtranslateY
p3018
aVtranslateZ
p3019
aVrotateX
p3020
aVrotateY
p3021
aVrotateZ
p3022
aVscaleX
p3023
aVscaleY
p3024
aVscaleZ
p3025
aVspace_world
p3026
aaI01
aF0
aF0
aF0
aF0
aF0
aF0
aF1
aF1
aF1
aF0
aa(lp3027
Vlip_up_01_r_anim_space_switcher
p3028
a(lp3029
Vvisibility
p3030
aVtranslateX
p3031
aVtranslateY
p3032
aVtranslateZ
p3033
aVrotateX
p3034
aVrotateY
p3035
aVrotateZ
p3036
aVscaleX
p3037
aVscaleY
p3038
aVscaleZ
p3039
aVspace_world
p3040
aaI01
aF0
aF0
aF0
aF0
aF0
aF0
aF1
aF1
aF1
aF0
aa(lp3041
Vlip_up_02_l_anim_space_switcher
p3042
a(lp3043
Vvisibility
p3044
aVtranslateX
p3045
aVtranslateY
p3046
aVtranslateZ
p3047
aVrotateX
p3048
aVrotateY
p3049
aVrotateZ
p3050
aVscaleX
p3051
aVscaleY
p3052
aVscaleZ
p3053
aVspace_world
p3054
aaI01
aF-2.2204460492503131e-16
aF0
aF0
aF0
aF0
aF0
aF1
aF1
aF1
aF0
aa(lp3055
Vlip_up_02_r_anim_space_switcher
p3056
a(lp3057
Vvisibility
p3058
aVtranslateX
p3059
aVtranslateY
p3060
aVtranslateZ
p3061
aVrotateX
p3062
aVrotateY
p3063
aVrotateZ
p3064
aVscaleX
p3065
aVscaleY
p3066
aVscaleZ
p3067
aVspace_world
p3068
aaI01
aF0
aF1.7763568394002505e-15
aF-2.8421709430404007e-14
aF0
aF0
aF0
aF1
aF1
aF1
aF0
aa(lp3069
Vlip_up_03_l_anim_space_switcher
p3070
a(lp3071
Vvisibility
p3072
aVtranslateX
p3073
aVtranslateY
p3074
aVtranslateZ
p3075
aVrotateX
p3076
aVrotateY
p3077
aVrotateZ
p3078
aVscaleX
p3079
aVscaleY
p3080
aVscaleZ
p3081
aVspace_world
p3082
aaI01
aF0
aF0
aF0
aF0
aF0
aF0
aF1
aF1
aF1
aF0
aa(lp3083
Vlip_up_03_r_anim_space_switcher
p3084
a(lp3085
Vvisibility
p3086
aVtranslateX
p3087
aVtranslateY
p3088
aVtranslateZ
p3089
aVrotateX
p3090
aVrotateY
p3091
aVrotateZ
p3092
aVscaleX
p3093
aVscaleY
p3094
aVscaleZ
p3095
aVspace_world
p3096
aaI01
aF0
aF0
aF0
aF0
aF0
aF0
aF1
aF1
aF1
aF0
aa(lp3097
Vlip_up_anim_space_switcher
p3098
a(lp3099
Vvisibility
p3100
aVtranslateX
p3101
aVtranslateY
p3102
aVtranslateZ
p3103
aVrotateX
p3104
aVrotateY
p3105
aVrotateZ
p3106
aVscaleX
p3107
aVscaleY
p3108
aVscaleZ
p3109
aVspace_world
p3110
aaI01
aF0
aF0
aF0
aF0
aF0
aF0
aF1
aF1
aF1
aF0
aa(lp3111
Vmaster_anim_space_switcher
p3112
a(lp3113
Vvisibility
p3114
aVtranslateX
p3115
aVtranslateY
p3116
aVtranslateZ
p3117
aVrotateX
p3118
aVrotateY
p3119
aVrotateZ
p3120
aVscaleX
p3121
aVscaleY
p3122
aVscaleZ
p3123
aVspace_world
p3124
aaI01
aF0
aF0
aF0
aF0
aF0
aF0
aF1
aF1
aF1
aF0
aa(lp3125
Vr_global_ik_anim_space_switcher
p3126
a(lp3127
Vvisibility
p3128
aVtranslateX
p3129
aVtranslateY
p3130
aVtranslateZ
p3131
aVrotateX
p3132
aVrotateY
p3133
aVrotateZ
p3134
aVscaleX
p3135
aVscaleY
p3136
aVscaleZ
p3137
aVspace_world
p3138
aaI01
aF0
aF0
aF0
aF0
aF0
aF0
aF1
aF1
aF1
aF0
aa(lp3139
Vscarf_back_anim_space_switcher
p3140
a(lp3141
Vvisibility
p3142
aVtranslateX
p3143
aVtranslateY
p3144
aVtranslateZ
p3145
aVrotateX
p3146
aVrotateY
p3147
aVrotateZ
p3148
aVscaleX
p3149
aVscaleY
p3150
aVscaleZ
p3151
aVspace_world
p3152
aaI01
aF0
aF0
aF0
aF0
aF0
aF0
aF1
aF1
aF1
aF0
aa(lp3153
Vscarf_front_anim_space_switcher
p3154
a(lp3155
Vvisibility
p3156
aVtranslateX
p3157
aVtranslateY
p3158
aVtranslateZ
p3159
aVrotateX
p3160
aVrotateY
p3161
aVrotateZ
p3162
aVscaleX
p3163
aVscaleY
p3164
aVscaleZ
p3165
aVspace_world
p3166
aaI01
aF0
aF0
aF0
aF0
aF0
aF0
aF1
aF1
aF1
aF0
aa(lp3167
Vscarf_l_anim_space_switcher
p3168
a(lp3169
Vvisibility
p3170
aVtranslateX
p3171
aVtranslateY
p3172
aVtranslateZ
p3173
aVrotateX
p3174
aVrotateY
p3175
aVrotateZ
p3176
aVscaleX
p3177
aVscaleY
p3178
aVscaleZ
p3179
aVspace_world
p3180
aaI01
aF0
aF0
aF0
aF0
aF0
aF0
aF1
aF1
aF1
aF0
aa(lp3181
Vscarf_r_anim_space_switcher
p3182
a(lp3183
Vvisibility
p3184
aVtranslateX
p3185
aVtranslateY
p3186
aVtranslateZ
p3187
aVrotateX
p3188
aVrotateY
p3189
aVrotateZ
p3190
aVscaleX
p3191
aVscaleY
p3192
aVscaleZ
p3193
aVspace_world
p3194
aaI01
aF0
aF0
aF0
aF0
aF0
aF0
aF1
aF1
aF1
aF0
aa(lp3195
Vshoulderpad_l_anim_space_switcher
p3196
a(lp3197
Vvisibility
p3198
aVtranslateX
p3199
aVtranslateY
p3200
aVtranslateZ
p3201
aVrotateX
p3202
aVrotateY
p3203
aVrotateZ
p3204
aVscaleX
p3205
aVscaleY
p3206
aVscaleZ
p3207
aVspace_world
p3208
aaI01
aF0
aF0
aF0
aF0
aF0
aF0
aF1
aF1
aF1
aF0
aa(lp3209
Vshoulderpad_r_anim_space_switcher
p3210
a(lp3211
Vvisibility
p3212
aVtranslateX
p3213
aVtranslateY
p3214
aVtranslateZ
p3215
aVrotateX
p3216
aVrotateY
p3217
aVrotateZ
p3218
aVscaleX
p3219
aVscaleY
p3220
aVscaleZ
p3221
aVspace_world
p3222
aaI01
aF0
aF0
aF0
aF0
aF0
aF0
aF1
aF1
aF1
aF0
aa(lp3223
Vskirt_r_anim_space_switcher
p3224
a(lp3225
Vvisibility
p3226
aVtranslateX
p3227
aVtranslateY
p3228
aVtranslateZ
p3229
aVrotateX
p3230
aVrotateY
p3231
aVrotateZ
p3232
aVscaleX
p3233
aVscaleY
p3234
aVscaleZ
p3235
aVspace_world
p3236
aaI01
aF0
aF0
aF0
aF0
aF0
aF0
aF1
aF1
aF1
aF0
aa(lp3237
Vspine_01_space_switcher
p3238
a(lp3239
Vvisibility
p3240
aVtranslateX
p3241
aVtranslateY
p3242
aVtranslateZ
p3243
aVrotateX
p3244
aVrotateY
p3245
aVrotateZ
p3246
aVscaleX
p3247
aVscaleY
p3248
aVscaleZ
p3249
aVspace_world
p3250
aaI01
aF0
aF0
aF0
aF0
aF0
aF0
aF1
aF1
aF1
aF0
aa(lp3251
Vtongue_01_anim_space_switcher
p3252
a(lp3253
Vvisibility
p3254
aVtranslateX
p3255
aVtranslateY
p3256
aVtranslateZ
p3257
aVrotateX
p3258
aVrotateY
p3259
aVrotateZ
p3260
aVscaleX
p3261
aVscaleY
p3262
aVscaleZ
p3263
aVspace_world
p3264
aaI01
aF3.1554436208840472e-30
aF0
aF0
aF0
aF0
aF0
aF1
aF1
aF1
aF0
aa(lp3265
Vtongue_02_anim_space_switcher
p3266
a(lp3267
Vvisibility
p3268
aVtranslateX
p3269
aVtranslateY
p3270
aVtranslateZ
p3271
aVrotateX
p3272
aVrotateY
p3273
aVrotateZ
p3274
aVscaleX
p3275
aVscaleY
p3276
aVscaleZ
p3277
aVspace_world
p3278
aaI01
aF0
aF0
aF0
aF0
aF0
aF0
aF1
aF1
aF1
aF0
aa.