(lp1
(lp2
I0
a(lp3
Vspine_03
p4
aF1
aaa(lp5
I1
a(lp6
Vspine_03
p7
aF1
aaa(lp8
I2
a(lp9
Vscarf_tail_06
p10
aF0.99886041357240174
aaa(lp11
I3
a(lp12
Vscarf_tail_06
p13
aF0.99907481486661709
aaa(lp14
I4
a(lp15
Vscarf_tail_03
p16
aF0.43025225400924683
aa(lp17
Vscarf_tail_04
p18
aF0.56771366531029344
aa(lp19
Vscarf_tail_06
p20
aF0.0014801216311752796
aaa(lp21
I5
a(lp22
Vspine_03
p23
aF0.0013059586053714156
aa(lp24
Vscarf_tail_01
p25
aF0.0021091977832838893
aa(lp26
Vscarf_tail_02
p27
aF0.0026184455491602421
aa(lp28
Vscarf_tail_03
p29
aF0.68006658554077148
aa(lp30
Vscarf_tail_04
p31
aF0.31389981252141297
aaa(lp32
I6
a(lp33
Vscarf_tail_06
p34
aF0.99996306257344258
aaa(lp35
I7
a(lp36
Vspine_03
p37
aF0.0030101332813501358
aa(lp38
Vscarf_tail_01
p39
aF0.0032982409466058016
aa(lp40
Vscarf_tail_02
p41
aF0.0024730549193918705
aa(lp42
Vscarf_tail_03
p43
aF0.6331479549407959
aa(lp44
Vscarf_tail_04
p45
aF0.35807061591185629
aaa(lp46
I8
a(lp47
Vspine_03
p48
aF1
aaa(lp49
I9
a(lp50
Vscarf_tail_01
p51
aF0.0080736558884382248
aa(lp52
Vscarf_tail_02
p53
aF0.98958701733499765
aa(lp54
Vscarf_tail_03
p55
aF0.0023393267765641212
aaa(lp56
I10
a(lp57
Vscarf_tail_01
p58
aF0.0099046537652611732
aa(lp59
Vscarf_tail_02
p60
aF0.99008260015216365
aaa(lp61
I11
a(lp62
Vscarf_tail_05
p63
aF0.99856245785825448
aaa(lp64
I12
a(lp65
Vscarf_tail_05
p66
aF0.99999460523788741
aaa(lp67
I13
a(lp68
Vscarf_tail_05
p69
aF0.99881289389122685
aa(lp70
Vscarf_tail_06
p71
aF0.001112233498133719
aaa(lp72
I14
a(lp73
Vscarf_tail_01
p74
aF0.0083333766087889671
aa(lp75
Vscarf_tail_02
p76
aF0.98924952745437622
aa(lp77
Vscarf_tail_03
p78
aF0.0024170959368348122
aaa(lp79
I15
a(lp80
Vscarf_tail_01
p81
aF0.94461709260940552
aa(lp82
Vscarf_tail_02
p83
aF0.054647819662932307
aaa(lp84
I16
a(lp85
Vscarf_tail_04
p86
aF0.99340295791625977
aa(lp87
Vscarf_tail_05
p88
aF0.0063199082589165956
aaa(lp89
I17
a(lp90
Vscarf_tail_05
p91
aF0.090050838887691498
aa(lp92
Vscarf_tail_06
p93
aF0.9098026940919226
aaa(lp94
I18
a(lp95
Vscarf_tail_02
p96
aF0.1308167427778244
aa(lp97
Vscarf_tail_03
p98
aF0.85256471671164036
aa(lp99
Vscarf_tail_04
p100
aF0.0062352092936635017
aa(lp101
Vscarf_tail_05
p102
aF0.0030136527493596077
aa(lp103
Vscarf_tail_06
p104
aF0.0073696784675121307
aaa(lp105
I19
a(lp106
Vscarf_tail_01
p107
aF0.96826210085419007
aa(lp108
Vscarf_tail_02
p109
aF0.031401731073856354
aaa(lp110
I20
a(lp111
Vscarf_tail_02
p112
aF0.13518714904785156
aa(lp113
Vscarf_tail_03
p114
aF0.85806535083247581
aa(lp115
Vscarf_tail_04
p116
aF0.0037088899407535791
aa(lp117
Vscarf_tail_05
p118
aF0.001790184760466218
aa(lp119
Vscarf_tail_06
p120
aF0.0011860663071274757
aaa(lp121
I21
a(lp122
Vscarf_tail_02
p123
aF0.036064274609088898
aa(lp124
Vscarf_tail_03
p125
aF0.9639357253909111
aaa(lp126
I22
a(lp127
Vscarf_tail_05
p128
aF0.18054388463497162
aa(lp129
Vscarf_tail_06
p130
aF0.81879715656396002
aaa(lp131
I23
a(lp132
Vscarf_tail_04
p133
aF0.97416073083877563
aa(lp134
Vscarf_tail_05
p135
aF0.025833937251263706
aaa(lp136
I24
a(lp137
Vscarf_tail_05
p138
aF0.15840773284435272
aa(lp139
Vscarf_tail_06
p140
aF0.8410907699726522
aaa(lp141
I25
a(lp142
Vscarf_tail_04
p143
aF0.99535930156707764
aa(lp144
Vscarf_tail_05
p145
aF0.004543703435047064
aaa(lp146
I26
a(lp147
Vscarf_tail_01
p148
aF0.95200520753860474
aa(lp149
Vscarf_tail_02
p150
aF0.047341978410258889
aaa(lp151
I27
a(lp152
Vscarf_tail_01
p153
aF0.11252865195274353
aa(lp154
Vscarf_tail_02
p155
aF0.88132150241290219
aa(lp156
Vscarf_tail_04
p157
aF0.0017213275423273444
aa(lp158
Vscarf_tail_06
p159
aF0.0032636116957291961
aaa(lp160
I28
a(lp161
Vscarf_tail_05
p162
aF0.99196672439575195
aa(lp163
Vscarf_tail_06
p164
aF0.0080164188270828163
aaa(lp165
I29
a(lp166
Vscarf_tail_02
p167
aF0.96747517585754395
aa(lp168
Vscarf_tail_03
p169
aF0.031857798399869353
aaa(lp170
I30
a(lp171
Vspine_03
p172
aF0.0024316566996276379
aa(lp173
Vscarf_tail_05
p174
aF0.99064517021179199
aa(lp175
Vscarf_tail_06
p176
aF0.0035619505215436225
aaa(lp177
I31
a(lp178
Vscarf_tail_04
p179
aF0.062173310667276382
aa(lp180
Vscarf_tail_05
p181
aF0.92819590463731316
aa(lp182
Vscarf_tail_06
p183
aF0.0096307052299380302
aaa(lp184
I32
a(lp185
Vscarf_tail_04
p186
aF0.19287942349910736
aa(lp187
Vscarf_tail_05
p188
aF0.80474430245521944
aa(lp189
Vscarf_tail_06
p190
aF0.0014323279028758407
aaa(lp191
I33
a(lp192
Vscarf_tail_01
p193
aF0.1725599467754364
aa(lp194
Vscarf_tail_02
p195
aF0.8144876197911799
aa(lp196
Vscarf_tail_03
p197
aF0.007653587032109499
aa(lp198
Vscarf_tail_04
p199
aF0.0018096858402714133
aa(lp200
Vscarf_tail_05
p201
aF0.0010107596172019839
aa(lp202
Vscarf_tail_06
p203
aF0.002478400943800807
aaa(lp204
I34
a(lp205
Vscarf_tail_02
p206
aF0.90048515796661377
aa(lp207
Vscarf_tail_03
p208
aF0.098788177381685216
aaa(lp209
I35
a(lp210
Vspine_03
p211
aF0.44418495893478394
aa(lp212
Vscarf_tail_01
p213
aF0.55581504106521606
aaa(lp214
I36
a(lp215
Vscarf_tail_03
p216
aF0.01262927521020174
aa(lp217
Vscarf_tail_04
p218
aF0.97993519576266408
aa(lp219
Vscarf_tail_05
p220
aF0.0037035872228443623
aa(lp221
Vscarf_tail_06
p222
aF0.0037319418042898178
aaa(lp223
I37
a(lp224
Vscarf_tail_04
p225
aF0.17873857915401459
aa(lp226
Vscarf_tail_05
p227
aF0.82035073077713605
aaa(lp228
I38
a(lp229
Vscarf_tail_06
p230
aF0.99999478269455722
aaa(lp231
I39
a(lp232
Vscarf_tail_03
p233
aF0.99939229671872454
aaa(lp234
I40
a(lp235
Vscarf_tail_01
p236
aF0.0034686154685914516
aa(lp237
Vscarf_tail_02
p238
aF0.9595298171043396
aa(lp239
Vscarf_tail_03
p240
aF0.037001567427068949
aaa(lp241
I41
a(lp242
Vspine_03
p243
aF0.47592929005622864
aa(lp244
Vscarf_tail_01
p245
aF0.52392439106188249
aaa(lp246
I42
a(lp247
Vscarf_tail_01
p248
aF0.21146188676357269
aa(lp249
Vscarf_tail_02
p250
aF0.78274433166006929
aa(lp251
Vscarf_tail_03
p252
aF0.0011304583167657256
aa(lp253
Vscarf_tail_04
p254
aF0.0016713507939130068
aa(lp255
Vscarf_tail_06
p256
aF0.0020783457439392805
aaa(lp257
I43
a(lp258
Vscarf_tail_03
p259
aF0.99888908878347138
aaa(lp260
I44
a(lp261
Vscarf_tail_03
p262
aF0.99876772646393874
aa(lp263
Vscarf_tail_04
p264
aF0.0012274305336177349
aaa(lp265
I45
a(lp266
Vscarf_tail_06
p267
aF0.9999565119833278
aaa(lp268
I46
a(lp269
Vscarf_tail_04
p270
aF0.99730313853494224
aa(lp271
Vscarf_tail_05
p272
aF0.0019405263010412455
aaa(lp273
I47
a(lp274
Vscarf_tail_06
p275
aF0.99998517827634714
aaa(lp276
I48
a(lp277
Vscarf_tail_05
p278
aF0.98909664154052734
aa(lp279
Vscarf_tail_06
p280
aF0.010882917753406218
aaa(lp281
I49
a(lp282
Vscarf_tail_03
p283
aF0.0041509172879159451
aa(lp284
Vscarf_tail_04
p285
aF0.98851566806479241
aa(lp286
Vscarf_tail_05
p287
aF0.0069582017313223332
aaa(lp288
I50
a(lp289
Vspine_03
p290
aF0.49095988273620605
aa(lp291
Vscarf_tail_01
p292
aF0.50904011726379395
aaa(lp293
I51
a(lp294
Vscarf_tail_01
p295
aF0.65816015005111694
aa(lp296
Vscarf_tail_02
p297
aF0.34121645695995539
aaa(lp298
I52
a(lp299
Vscarf_tail_01
p300
aF0.59243172407150269
aa(lp301
Vscarf_tail_02
p302
aF0.40681572665926069
aaa(lp303
I53
a(lp304
Vscarf_tail_01
p305
aF0.96098214387893677
aa(lp306
Vscarf_tail_02
p307
aF0.038384974701330066
aaa(lp308
I54
a(lp309
Vscarf_tail_01
p310
aF0.7093663215637207
aa(lp311
Vscarf_tail_02
p312
aF0.29050036432454363
aaa(lp313
I55
a(lp314
Vscarf_tail_01
p315
aF0.15222357213497162
aa(lp316
Vscarf_tail_02
p317
aF0.84755436475097667
aaa(lp318
I56
a(lp319
Vscarf_tail_05
p320
aF0.71032267808914185
aa(lp321
Vscarf_tail_06
p322
aF0.28965044429241971
aaa(lp323
I57
a(lp324
Vscarf_tail_05
p325
aF0.69002228975296021
aa(lp326
Vscarf_tail_06
p327
aF0.30989485868848021
aaa(lp328
I58
a(lp329
Vscarf_tail_05
p330
aF0.11235635727643967
aa(lp331
Vscarf_tail_06
p332
aF0.88764364272356033
aaa(lp333
I59
a(lp334
Vscarf_tail_05
p335
aF0.71960264444351196
aa(lp336
Vscarf_tail_06
p337
aF0.2803718682298495
aaa(lp338
I60
a(lp339
Vscarf_tail_05
p340
aF0.99305826425552368
aa(lp341
Vscarf_tail_06
p342
aF0.006930631896466366
aaa(lp343
I61
a(lp344
Vscarf_tail_02
p345
aF0.54882395267486572
aa(lp346
Vscarf_tail_03
p347
aF0.45055519207380712
aaa(lp348
I62
a(lp349
Vscarf_tail_02
p350
aF0.63305675983428955
aa(lp351
Vscarf_tail_03
p352
aF0.36668121146794874
aaa(lp353
I63
a(lp354
Vscarf_tail_02
p355
aF0.086514629423618317
aa(lp356
Vscarf_tail_03
p357
aF0.9129319962230511
aaa(lp358
I64
a(lp359
Vscarf_tail_01
p360
aF0.0011020342353731394
aa(lp361
Vscarf_tail_02
p362
aF0.41552942991256714
aa(lp363
Vscarf_tail_03
p364
aF0.58230451256531524
aaa(lp365
I65
a(lp366
Vscarf_tail_02
p367
aF0.94944977760314941
aa(lp368
Vscarf_tail_03
p369
aF0.050217614218126982
aaa(lp370
I66
a(lp371
Vscarf_tail_05
p372
aF0.71148455142974854
aa(lp373
Vscarf_tail_06
p374
aF0.28849481368160923
aaa(lp375
I67
a(lp376
Vscarf_tail_05
p377
aF0.74128848314285278
aa(lp378
Vscarf_tail_06
p379
aF0.2583103351353202
aaa(lp380
I68
a(lp381
Vscarf_tail_05
p382
aF0.11359164118766785
aa(lp383
Vscarf_tail_06
p384
aF0.88640835881233215
aaa(lp385
I69
a(lp386
Vscarf_tail_05
p387
aF0.99249428510665894
aa(lp388
Vscarf_tail_06
p389
aF0.00737133136135526
aaa(lp390
I70
a(lp391
Vscarf_tail_04
p392
aF0.67590004205703735
aa(lp393
Vscarf_tail_05
p394
aF0.32405763814676902
aaa(lp395
I71
a(lp396
Vscarf_tail_04
p397
aF0.095773115754127502
aa(lp398
Vscarf_tail_05
p399
aF0.90392095006730244
aaa(lp400
I72
a(lp401
Vscarf_tail_04
p402
aF0.6027405858039856
aa(lp403
Vscarf_tail_05
p404
aF0.39714494528561772
aaa(lp405
I73
a(lp406
Vscarf_tail_04
p407
aF0.99190372228622437
aa(lp408
Vscarf_tail_05
p409
aF0.008093466665741289
aaa(lp410
I74
a(lp411
Vscarf_tail_04
p412
aF0.73981225490570068
aa(lp413
Vscarf_tail_05
p414
aF0.2593016158498358
aaa(lp415
I75
a(lp416
Vscarf_tail_04
p417
aF0.67871987819671631
aa(lp418
Vscarf_tail_05
p419
aF0.3211492210139113
aaa(lp420
I76
a(lp421
Vscarf_tail_04
p422
aF0.75393217802047729
aa(lp423
Vscarf_tail_05
p424
aF0.24528748731972883
aaa(lp425
I77
a(lp426
Vscarf_tail_04
p427
aF0.99194300174713135
aa(lp428
Vscarf_tail_05
p429
aF0.0080374808076157933
aaa(lp430
I78
a(lp431
Vscarf_tail_04
p432
aF0.098626516759395599
aa(lp433
Vscarf_tail_05
p434
aF0.90106647735228762
aaa(lp435
I79
a(lp436
Vscarf_tail_01
p437
aF0.61778819561004639
aa(lp438
Vscarf_tail_02
p439
aF0.38173587096389383
aaa(lp440
I80
a(lp441
Vscarf_tail_01
p442
aF0.65842241048812866
aa(lp443
Vscarf_tail_02
p444
aF0.3409080698620528
aaa(lp445
I81
a(lp446
Vscarf_tail_01
p447
aF0.95119249820709229
aa(lp448
Vscarf_tail_02
p449
aF0.048365779250161722
aaa(lp450
I82
a(lp451
Vscarf_tail_01
p452
aF0.12787285447120667
aa(lp453
Vscarf_tail_02
p454
aF0.87077839178527938
aa(lp455
Vscarf_tail_03
p456
aF0.0012335797073319554
aaa(lp457
I83
a(lp458
Vscarf_tail_01
p459
aF0.0025681753177195787
aa(lp460
Vscarf_tail_02
p461
aF0.50748097896575928
aa(lp462
Vscarf_tail_03
p463
aF0.48970831207407173
aaa(lp464
I84
a(lp465
Vscarf_tail_01
p466
aF0.0012713788310065866
aa(lp467
Vscarf_tail_02
p468
aF0.93324840068817139
aa(lp469
Vscarf_tail_03
p470
aF0.065477812562448889
aaa(lp471
I85
a(lp472
Vscarf_tail_02
p473
aF0.072013646364212036
aa(lp474
Vscarf_tail_03
p475
aF0.92739448693146187
aaa(lp476
I86
a(lp477
Vspine_03
p478
aF0.0027899125125259161
aa(lp479
Vscarf_tail_01
p480
aF0.007059924304485321
aa(lp481
Vscarf_tail_02
p482
aF0.61199450492858887
aa(lp483
Vscarf_tail_03
p484
aF0.3781556582543999
aaa(lp485
I87
a(lp486
Vspine_03
p487
aF0.94694912433624268
aa(lp488
Vscarf_tail_01
p489
aF0.053050875663757324
aaa(lp490
I88
a(lp491
Vspine_03
p492
aF0.45652639865875244
aa(lp493
Vscarf_tail_01
p494
aF0.54341193250729702
aaa(lp495
I89
a(lp496
Vspine_03
p497
aF0.9439704418182373
aa(lp498
Vscarf_tail_01
p499
aF0.056029558181762695
aaa(lp500
I90
a(lp501
Vspine_03
p502
aF1
aaa(lp503
I91
a(lp504
Vspine_03
p505
aF0.93575239181518555
aa(lp506
Vscarf_tail_01
p507
aF0.064247608184814453
aaa(lp508
I92
a(lp509
Vscarf_tail_04
p510
aF0.99912393093109131
aaa(lp511
I93
a(lp512
Vscarf_tail_04
p513
aF0.99648571014404297
aa(lp514
Vscarf_tail_05
p515
aF0.0024823949643177912
aaa(lp516
I94
a(lp517
Vscarf_tail_04
p518
aF0.99994844198226929
aaa(lp519
I95
a(lp520
Vscarf_tail_03
p521
aF0.0017981212586164474
aa(lp522
Vscarf_tail_04
p523
aF0.99619197163873274
aa(lp524
Vscarf_tail_05
p525
aF0.0018803499406203628
aaa(lp526
I96
a(lp527
Vscarf_tail_05
p528
aF0.99994450740155116
aaa(lp529
I97
a(lp530
Vscarf_tail_04
p531
aF0.0097490232437849045
aa(lp532
Vscarf_tail_05
p533
aF0.99009515361103695
aaa(lp534
I98
a(lp535
Vscarf_tail_05
p536
aF0.99990352542590699
aaa(lp537
I99
a(lp538
Vscarf_tail_05
p539
aF0.99990798375802115
aaa(lp540
I100
a(lp541
Vscarf_tail_06
p542
aF0.99999628670479979
aaa(lp543
I101
a(lp544
Vscarf_tail_06
p545
aF0.99999316651428671
aaa(lp546
I102
a(lp547
Vscarf_tail_06
p548
aF0.99999339604437409
aaa(lp549
I103
a(lp550
Vscarf_tail_06
p551
aF0.99994637624695315
aaa(lp552
I104
a(lp553
Vscarf_tail_06
p554
aF0.9999661911115254
aaa(lp555
I105
a(lp556
Vscarf_tail_03
p557
aF0.99869379893061705
aaa(lp558
I106
a(lp559
Vscarf_tail_02
p560
aF0.0043107373639941216
aa(lp561
Vscarf_tail_03
p562
aF0.98775394026597496
aa(lp563
Vscarf_tail_04
p564
aF0.0050256894901394844
aa(lp565
Vscarf_tail_05
p566
aF0.0022607855498790741
aaa(lp567
I107
a(lp568
Vscarf_tail_03
p569
aF0.99748208711788067
aa(lp570
Vscarf_tail_04
p571
aF0.0010300913127139211
aa(lp572
Vscarf_tail_06
p573
aF0.0012207771651446819
aaa(lp574
I108
a(lp575
Vscarf_tail_03
p576
aF0.99998067949454217
aaa(lp577
I109
a(lp578
Vscarf_tail_01
p579
aF0.0045161624439060688
aa(lp580
Vscarf_tail_02
p581
aF0.99429178237915039
aa(lp582
Vscarf_tail_03
p583
aF0.0010996257478836924
aaa(lp584
I110
a(lp585
Vscarf_tail_01
p586
aF0.0045579108409583569
aa(lp587
Vscarf_tail_02
p588
aF0.99457955360412598
aaa(lp589
I111
a(lp590
Vscarf_tail_01
p591
aF0.011601408943533897
aa(lp592
Vscarf_tail_02
p593
aF0.98839196056997025
aaa(lp594
I112
a(lp595
Vscarf_tail_01
p596
aF0.0029915079940110445
aa(lp597
Vscarf_tail_02
p598
aF0.99437367916107178
aa(lp599
Vscarf_tail_03
p600
aF0.0026348128449171782
aaa(lp601
I113
a(lp602
Vspine_03
p603
aF0.036449890583753586
aa(lp604
Vscarf_tail_01
p605
aF0.94730816368246451
aa(lp606
Vscarf_tail_03
p607
aF0.013209959957748652
aa(lp608
Vscarf_tail_04
p609
aF0.0025537884794175625
aaa(lp610
I114
a(lp611
Vspine_03
p612
aF0.054991375654935837
aa(lp613
Vscarf_tail_01
p614
aF0.92626438610022888
aa(lp615
Vscarf_tail_03
p616
aF0.012007868848741055
aa(lp617
Vscarf_tail_04
p618
aF0.0058401226997375488
aaa(lp619
I115
a(lp620
Vspine_03
p621
aF0.032533701509237289
aa(lp622
Vscarf_tail_01
p623
aF0.95342239900492132
aa(lp624
Vscarf_tail_02
p625
aF0.0020196496043354273
aa(lp626
Vscarf_tail_03
p627
aF0.012024249881505966
aaa(lp628
I116
a(lp629
Vspine_03
p630
aF0.0016241277335211635
aa(lp631
Vscarf_tail_01
p632
aF0.010728496126830578
aa(lp633
Vscarf_tail_02
p634
aF0.98764737613964826
aaa(lp635
I117
a(lp636
Vscarf_tail_01
p637
aF0.020357059314846992
aa(lp638
Vscarf_tail_02
p639
aF0.97449741663876921
aa(lp640
Vscarf_tail_03
p641
aF0.0041329748928546906
aa(lp642
Vscarf_tail_04
p643
aF0.0010125491535291076
aaa(lp644
I118
a(lp645
Vspine_03
p646
aF0.0016959080239757895
aa(lp647
Vscarf_tail_01
p648
aF0.0070938603021204472
aa(lp649
Vscarf_tail_02
p650
aF0.99100100982468575
aaa(lp651
I119
a(lp652
Vscarf_tail_01
p653
aF0.0106641985476017
aa(lp654
Vscarf_tail_02
p655
aF0.98885837151465239
aaa(lp656
I120
a(lp657
Vscarf_tail_03
p658
aF0.95007544755935669
aa(lp659
Vscarf_tail_04
p660
aF0.049918990147432396
aaa(lp661
I121
a(lp662
Vscarf_tail_03
p663
aF0.9996382423621607
aaa(lp664
I122
a(lp665
Vscarf_tail_03
p666
aF0.97596627473831177
aa(lp667
Vscarf_tail_04
p668
aF0.0235871008480899
aaa(lp669
I123
a(lp670
Vscarf_tail_03
p671
aF0.56037235260009766
aa(lp672
Vscarf_tail_04
p673
aF0.43897403673327062
aaa(lp674
I124
a(lp675
Vscarf_tail_03
p676
aF0.90553504228591919
aa(lp677
Vscarf_tail_04
p678
aF0.094459918247594032
aaa(lp679
I125
a(lp680
Vscarf_tail_02
p681
aF0.0016048444667831063
aa(lp682
Vscarf_tail_03
p683
aF0.99826705837748575
aaa(lp684
I126
a(lp685
Vscarf_tail_02
p686
aF0.0039290944114327431
aa(lp687
Vscarf_tail_03
p688
aF0.9868049006909132
aa(lp689
Vscarf_tail_04
p690
aF0.005667469697073102
aa(lp691
Vscarf_tail_05
p692
aF0.0018586072837933898
aa(lp693
Vscarf_tail_06
p694
aF0.0017399279167875648
aaa(lp695
I127
a(lp696
Vscarf_tail_01
p697
aF0.002154629910364747
aa(lp698
Vscarf_tail_02
p699
aF0.9961470365524292
aa(lp700
Vscarf_tail_03
p701
aF0.0016983335372060535
aaa(lp702
I128
a(lp703
Vspine_03
p704
aF0.0018058388959616423
aa(lp705
Vscarf_tail_01
p706
aF0.0040280744433403015
aa(lp707
Vscarf_tail_02
p708
aF0.99416608666069806
aaa(lp709
I129
a(lp710
Vscarf_tail_06
p711
aF0.99997428735514404
aaa(lp712
I130
a(lp713
Vscarf_tail_06
p714
aF0.9999996239974962
aaa(lp715
I131
a(lp716
Vscarf_tail_06
p717
aF0.99988176982151344
aaa(lp718
I132
a(lp719
Vscarf_tail_06
p720
aF0.99994519908295842
aaa(lp721
I133
a(lp722
Vscarf_tail_06
p723
aF0.99915915302699432
aaa(lp724
I134
a(lp725
Vscarf_tail_06
p726
aF0.9999923330369711
aaa(lp727
I135
a(lp728
Vscarf_tail_05
p729
aF0.0075190742500126362
aa(lp730
Vscarf_tail_06
p731
aF0.99248092574998736
aaa(lp732
I136
a(lp733
Vscarf_tail_05
p734
aF0.9998963475227356
aaa(lp735
I137
a(lp736
Vscarf_tail_05
p737
aF0.99998333143116724
aaa(lp738
I138
a(lp739
Vscarf_tail_05
p740
aF0.9993777871131897
aaa(lp741
I139
a(lp742
Vscarf_tail_03
p743
aF0.097769871354103088
aa(lp744
Vscarf_tail_04
p745
aF0.90223012864589691
aaa(lp746
I140
a(lp747
Vscarf_tail_03
p748
aF0.03998541459441185
aa(lp749
Vscarf_tail_04
p750
aF0.95514326272279959
aa(lp751
Vscarf_tail_05
p752
aF0.0018236854812130332
aa(lp753
Vscarf_tail_06
p754
aF0.0030465257586911321
aaa(lp755
I141
a(lp756
Vspine_03
p757
aF0.0013067586114630103
aa(lp758
Vscarf_tail_01
p759
aF0.0045830458402633667
aa(lp760
Vscarf_tail_03
p761
aF0.18304720520973206
aa(lp762
Vscarf_tail_04
p763
aF0.80044936342164874
aa(lp764
Vscarf_tail_05
p765
aF0.0034203703980892897
aa(lp766
Vscarf_tail_06
p767
aF0.0063362151850014925
aaa(lp768
I142
a(lp769
Vscarf_tail_05
p770
aF0.0010983218671754003
aa(lp771
Vscarf_tail_06
p772
aF0.9989016781328246
aaa(lp773
I143
a(lp774
Vscarf_tail_05
p775
aF0.0047983038239181042
aa(lp776
Vscarf_tail_06
p777
aF0.99475765140959993
aaa(lp778
I144
a(lp779
Vscarf_tail_05
p780
aF0.99997949600219727
aaa(lp781
I145
a(lp782
Vscarf_tail_05
p783
aF0.9998861707957758
aaa(lp784
I146
a(lp785
Vscarf_tail_05
p786
aF0.99997435731707185
aaa(lp787
I147
a(lp788
Vscarf_tail_03
p789
aF0.08667435497045517
aa(lp790
Vscarf_tail_04
p791
aF0.91310635753325187
aaa(lp792
I148
a(lp793
Vscarf_tail_03
p794
aF0.0016053837025538087
aa(lp795
Vscarf_tail_04
p796
aF0.99831071674270788
aaa(lp797
I149
a(lp798
Vspine_03
p799
aF0.0023329057730734348
aa(lp800
Vscarf_tail_03
p801
aF0.13608081638813019
aa(lp802
Vscarf_tail_04
p803
aF0.83599210903048515
aa(lp804
Vscarf_tail_05
p805
aF0.0077269808389246464
aa(lp806
Vscarf_tail_06
p807
aF0.017112412955611944
aaa(lp808
I150
a(lp809
Vscarf_tail_03
p810
aF0.54925185441970825
aa(lp811
Vscarf_tail_04
p812
aF0.45004287530195231
aaa(lp813
I151
a(lp814
Vscarf_tail_04
p815
aF0.99982406634444487
aaa(lp816
I152
a(lp817
Vscarf_tail_04
p818
aF0.9989776611328125
aaa(lp819
I153
a(lp820
Vscarf_tail_05
p821
aF0.99999977742477597
aaa(lp822
I154
a(lp823
Vscarf_tail_04
p824
aF0.011219585314393044
aa(lp825
Vscarf_tail_05
p826
aF0.98168037086699289
aa(lp827
Vscarf_tail_06
p828
aF0.0068577025085687637
aaa(lp829
I155
a(lp830
Vspine_03
p831
aF0.94884282350540161
aa(lp832
Vscarf_tail_01
p833
aF0.051157176494598389
aaa(lp834
I156
a(lp835
Vspine_03
p836
aF0.46596986055374146
aa(lp837
Vscarf_tail_01
p838
aF0.53398243633273523
aaa(lp839
I157
a(lp840
Vspine_03
p841
aF0.93979066610336304
aa(lp842
Vscarf_tail_01
p843
aF0.06020933389663697
aaa(lp844
I158
a(lp845
Vspine_03
p846
aF1
aaa(lp847
I159
a(lp848
Vspine_03
p849
aF0.038886278867721558
aa(lp850
Vscarf_tail_01
p851
aF0.94378108927048743
aa(lp852
Vscarf_tail_02
p853
aF0.001957509433850646
aa(lp854
Vscarf_tail_03
p855
aF0.01474200194934383
aaa(lp856
I160
a(lp857
Vspine_03
p858
aF0.05999026820063591
aa(lp859
Vscarf_tail_01
p860
aF0.92217958811670542
aa(lp861
Vscarf_tail_02
p862
aF0.0011593056842684746
aa(lp863
Vscarf_tail_03
p864
aF0.014078873209655285
aa(lp865
Vscarf_tail_04
p866
aF0.0025919647887349129
aaa(lp867
I161
a(lp868
Vscarf_tail_01
p869
aF0.012442301958799362
aa(lp870
Vscarf_tail_02
p871
aF0.98699827439850196
aaa(lp872
I162
a(lp873
Vscarf_tail_01
p874
aF0.01588129810988903
aa(lp875
Vscarf_tail_02
p876
aF0.98165836617044988
aa(lp877
Vscarf_tail_03
p878
aF0.0021883177105337381
aaa(lp879
I163
a(lp880
Vscarf_tail_03
p881
aF0.95218960532656638
aa(lp882
Vscarf_tail_04
p883
aF0.047740720212459564
aaa(lp884
I164
a(lp885
Vscarf_tail_03
p886
aF0.97394166287267581
aa(lp887
Vscarf_tail_04
p888
aF0.025448562577366825
aaa(lp889
I165
a(lp890
Vscarf_tail_01
p891
aF0.33621507883071899
aa(lp892
Vscarf_tail_02
p893
aF0.6590371224883711
aa(lp894
Vscarf_tail_04
p895
aF0.0014417814090847969
aa(lp896
Vscarf_tail_06
p897
aF0.00234448560513556
aaa(lp898
I166
a(lp899
Vscarf_tail_01
p900
aF0.12590555846691132
aa(lp901
Vscarf_tail_02
p902
aF0.87210816494189203
aa(lp903
Vscarf_tail_04
p904
aF0.0016820698510855436
aaa(lp905
I167
a(lp906
Vscarf_tail_01
p907
aF0.31320622563362122
aa(lp908
Vscarf_tail_02
p909
aF0.6828289001568919
aa(lp910
Vscarf_tail_04
p911
aF0.0016513838199898601
aa(lp912
Vscarf_tail_06
p913
aF0.0010421262704767287
aaa(lp914
I168
a(lp915
Vscarf_tail_01
p916
aF0.61680477857589722
aa(lp917
Vscarf_tail_02
p918
aF0.38236357050482184
aaa(lp919
I169
a(lp920
Vscarf_tail_01
p921
aF0.37817606329917908
aa(lp922
Vscarf_tail_02
p923
aF0.62170184504066128
aaa(lp924
I170
a(lp925
Vscarf_tail_05
p926
aF0.92449641227722168
aa(lp927
Vscarf_tail_06
p928
aF0.07547766177867743
aaa(lp929
I171
a(lp930
Vscarf_tail_05
p931
aF0.99238145351409912
aa(lp932
Vscarf_tail_06
p933
aF0.007613121800773115
aaa(lp934
I172
a(lp935
Vscarf_tail_05
p936
aF0.92207783460617065
aa(lp937
Vscarf_tail_06
p938
aF0.077894861016829964
aaa(lp939
I173
a(lp940
Vscarf_tail_05
p941
aF0.6967586874961853
aa(lp942
Vscarf_tail_06
p943
aF0.30319762699946295
aaa(lp944
I174
a(lp945
Vscarf_tail_05
p946
aF0.92887216806411743
aa(lp947
Vscarf_tail_06
p948
aF0.07108089744363999
aaa(lp949
I175
a(lp950
Vscarf_tail_02
p951
aF0.85403424501419067
aa(lp952
Vscarf_tail_03
p953
aF0.14568217574742448
aaa(lp954
I176
a(lp955
Vscarf_tail_02
p956
aF0.96555638313293457
aa(lp957
Vscarf_tail_03
p958
aF0.033967119350563735
aaa(lp959
I177
a(lp960
Vscarf_tail_02
p961
aF0.85560673475265503
aa(lp962
Vscarf_tail_03
p963
aF0.14405266458561528
aaa(lp964
I178
a(lp965
Vscarf_tail_02
p966
aF0.60685575008392334
aa(lp967
Vscarf_tail_03
p968
aF0.39285377937267185
aaa(lp969
I179
a(lp970
Vscarf_tail_02
p971
aF0.80109685659408569
aa(lp972
Vscarf_tail_03
p973
aF0.19833920159726404
aaa(lp974
I180
a(lp975
Vscarf_tail_05
p976
aF0.93466103076934814
aa(lp977
Vscarf_tail_06
p978
aF0.065024880605051294
aaa(lp979
I181
a(lp980
Vscarf_tail_05
p981
aF0.99265635013580322
aa(lp982
Vscarf_tail_06
p983
aF0.0066975740774068981
aaa(lp984
I182
a(lp985
Vscarf_tail_05
p986
aF0.92821502685546875
aa(lp987
Vscarf_tail_06
p988
aF0.071121673565357924
aaa(lp989
I183
a(lp990
Vscarf_tail_05
p991
aF0.73118013143539429
aa(lp992
Vscarf_tail_06
p993
aF0.26866197310522466
aaa(lp994
I184
a(lp995
Vscarf_tail_05
p996
aF0.92777156829833984
aa(lp997
Vscarf_tail_06
p998
aF0.072093538503281707
aaa(lp999
I185
a(lp1000
Vscarf_tail_04
p1001
aF0.39037290215492249
aa(lp1002
Vscarf_tail_05
p1003
aF0.60947763815056533
aaa(lp1004
I186
a(lp1005
Vscarf_tail_04
p1006
aF0.42559948563575745
aa(lp1007
Vscarf_tail_05
p1008
aF0.57305401405756129
aaa(lp1009
I187
a(lp1010
Vscarf_tail_04
p1011
aF0.12348528206348419
aa(lp1012
Vscarf_tail_05
p1013
aF0.87525741930585355
aa(lp1014
Vscarf_tail_06
p1015
aF0.0012572986306622624
aaa(lp1016
I188
a(lp1017
Vscarf_tail_04
p1018
aF0.31991735100746155
aa(lp1019
Vscarf_tail_05
p1020
aF0.67961162236387218
aaa(lp1021
I189
a(lp1022
Vscarf_tail_04
p1023
aF0.70693367719650269
aa(lp1024
Vscarf_tail_05
p1025
aF0.2929540368495509
aaa(lp1026
I190
a(lp1027
Vscarf_tail_04
p1028
aF0.40237680077552795
aa(lp1029
Vscarf_tail_05
p1030
aF0.59745443148131017
aaa(lp1031
I191
a(lp1032
Vscarf_tail_04
p1033
aF0.13022102415561676
aa(lp1034
Vscarf_tail_05
p1035
aF0.86348887964413734
aa(lp1036
Vscarf_tail_06
p1037
aF0.0062570385634899139
aaa(lp1038
I192
a(lp1039
Vscarf_tail_04
p1040
aF0.4414762556552887
aa(lp1041
Vscarf_tail_05
p1042
aF0.55748515059167403
aaa(lp1043
I193
a(lp1044
Vscarf_tail_04
p1045
aF0.71361762285232544
aa(lp1046
Vscarf_tail_05
p1047
aF0.28609194988530362
aaa(lp1048
I194
a(lp1049
Vscarf_tail_04
p1050
aF0.32276147603988647
aa(lp1051
Vscarf_tail_05
p1052
aF0.67702175707381684
aaa(lp1053
I195
a(lp1054
Vscarf_tail_01
p1055
aF0.36879712343215942
aa(lp1056
Vscarf_tail_02
p1057
aF0.62868679940584116
aa(lp1058
Vscarf_tail_03
p1059
aF0.0022653529886156321
aaa(lp1060
I196
a(lp1061
Vscarf_tail_01
p1062
aF0.14892448484897614
aa(lp1063
Vscarf_tail_02
p1064
aF0.84795456490240895
aa(lp1065
Vscarf_tail_03
p1066
aF0.0010860154870897532
aa(lp1067
Vscarf_tail_04
p1068
aF0.0013664178550243378
aaa(lp1069
I197
a(lp1070
Vscarf_tail_01
p1071
aF0.39218851923942566
aa(lp1072
Vscarf_tail_02
p1073
aF0.6028827216650825
aa(lp1074
Vscarf_tail_03
p1075
aF0.0046478682197630405
aaa(lp1076
I198
a(lp1077
Vscarf_tail_01
p1078
aF0.64552092552185059
aa(lp1079
Vscarf_tail_02
p1080
aF0.35404972551623359
aaa(lp1081
I199
a(lp1082
Vscarf_tail_01
p1083
aF0.3374590277671814
aa(lp1084
Vscarf_tail_02
p1085
aF0.66247112041310174
aaa(lp1086
I200
a(lp1087
Vscarf_tail_01
p1088
aF0.0035829266998916864
aa(lp1089
Vscarf_tail_02
p1090
aF0.82707303762435913
aa(lp1091
Vscarf_tail_03
p1092
aF0.16934403567574921
aaa(lp1093
I201
a(lp1094
Vspine_03
p1095
aF0.0014295987784862518
aa(lp1096
Vscarf_tail_01
p1097
aF0.0051963557489216328
aa(lp1098
Vscarf_tail_02
p1099
aF0.84203654527664185
aa(lp1100
Vscarf_tail_03
p1101
aF0.15133750019595027
aaa(lp1102
I202
a(lp1103
Vscarf_tail_01
p1104
aF0.0022621841635555029
aa(lp1105
Vscarf_tail_02
p1106
aF0.95568686723709106
aa(lp1107
Vscarf_tail_03
p1108
aF0.042050948599353433
aaa(lp1109
I203
a(lp1110
Vscarf_tail_01
p1111
aF0.0017814553575590253
aa(lp1112
Vscarf_tail_02
p1113
aF0.77289742231369019
aa(lp1114
Vscarf_tail_03
p1115
aF0.22531649539405404
aaa(lp1116
I204
a(lp1117
Vscarf_tail_01
p1118
aF0.0050564734265208244
aa(lp1119
Vscarf_tail_02
p1120
aF0.57852423191070557
aa(lp1121
Vscarf_tail_03
p1122
aF0.41641929466277361
aaa(lp1123
I205
a(lp1124
Vspine_03
p1125
aF0.77222365140914917
aa(lp1126
Vscarf_tail_01
p1127
aF0.22777634859085083
aaa(lp1128
I206
a(lp1129
Vspine_03
p1130
aF0.76268035173416138
aa(lp1131
Vscarf_tail_01
p1132
aF0.23731964826583862
aaa(lp1133
I207
a(lp1134
Vspine_03
p1135
aF0.46723750233650208
aa(lp1136
Vscarf_tail_01
p1137
aF0.53264620935806306
aaa(lp1138
I208
a(lp1139
Vspine_03
p1140
aF0.76881206035614014
aa(lp1141
Vscarf_tail_01
p1142
aF0.23118793964385984
aaa(lp1143
I209
a(lp1144
Vspine_03
p1145
aF0.94561845064163208
aa(lp1146
Vscarf_tail_01
p1147
aF0.05438154935836792
aaa(lp1148
I210
a(lp1149
Vscarf_tail_04
p1150
aF0.99694949088734575
aa(lp1151
Vscarf_tail_05
p1152
aF0.0019887015223503113
aaa(lp1153
I211
a(lp1154
Vscarf_tail_03
p1155
aF0.0068896766752004623
aa(lp1156
Vscarf_tail_04
p1157
aF0.99265411739906995
aaa(lp1158
I212
a(lp1159
Vspine_03
p1160
aF0.0035920231603085995
aa(lp1161
Vscarf_tail_01
p1162
aF0.0017716613365337253
aa(lp1163
Vscarf_tail_02
p1164
aF0.0014276726869866252
aa(lp1165
Vscarf_tail_03
p1166
aF0.0031034376006573439
aa(lp1167
Vscarf_tail_04
p1168
aF0.98947689920896664
aaa(lp1169
I213
a(lp1170
Vscarf_tail_04
p1171
aF0.99809497594833374
aa(lp1172
Vscarf_tail_05
p1173
aF0.001114094194972215
aaa(lp1174
I214
a(lp1175
Vscarf_tail_04
p1176
aF0.99763940364937298
aa(lp1177
Vscarf_tail_05
p1178
aF0.0015323985135182738
aaa(lp1179
I215
a(lp1180
Vscarf_tail_04
p1181
aF0.026570642367005348
aa(lp1182
Vscarf_tail_05
p1183
aF0.97266684123314917
aaa(lp1184
I216
a(lp1185
Vscarf_tail_04
p1186
aF0.044153481721878052
aa(lp1187
Vscarf_tail_05
p1188
aF0.95561188602732727
aaa(lp1189
I217
a(lp1190
Vscarf_tail_05
p1191
aF0.99846669906401075
aa(lp1192
Vscarf_tail_06
p1193
aF0.0014066289877519011
aaa(lp1194
I218
a(lp1195
Vscarf_tail_04
p1196
aF0.0079996613785624504
aa(lp1197
Vscarf_tail_05
p1198
aF0.99139564536744729
aaa(lp1199
I219
a(lp1200
Vscarf_tail_06
p1201
aF0.99999454698473755
aaa(lp1202
I220
a(lp1203
Vscarf_tail_06
p1204
aF0.99987600379427022
aaa(lp1205
I221
a(lp1206
Vscarf_tail_06
p1207
aF0.99999170506544033
aaa(lp1208
I222
a(lp1209
Vscarf_tail_06
p1210
aF0.99999157334673328
aaa(lp1211
I223
a(lp1212
Vscarf_tail_06
p1213
aF0.9999891692552012
aaa(lp1214
I224
a(lp1215
Vscarf_tail_03
p1216
aF0.99974847944395151
aaa(lp1217
I225
a(lp1218
Vscarf_tail_03
p1219
aF0.99992318814111059
aaa(lp1220
I226
a(lp1221
Vscarf_tail_03
p1222
aF0.99711405961716082
aa(lp1223
Vscarf_tail_04
p1224
aF0.0023946745786815882
aaa(lp1225
I227
a(lp1226
Vscarf_tail_02
p1227
aF0.0018666373798623681
aa(lp1228
Vscarf_tail_03
p1229
aF0.99732581549324095
aaa(lp1230
I228
a(lp1231
Vscarf_tail_03
p1232
aF0.99993044906113937
aaa(lp1233
I229
a(lp1234
Vscarf_tail_01
p1235
aF0.0026429244317114353
aa(lp1236
Vscarf_tail_02
p1237
aF0.99189102649688721
aa(lp1238
Vscarf_tail_03
p1239
aF0.0054660490714013577
aaa(lp1240
I230
a(lp1241
Vscarf_tail_01
p1242
aF0.0032387981191277504
aa(lp1243
Vscarf_tail_02
p1244
aF0.99195528030395508
aa(lp1245
Vscarf_tail_03
p1246
aF0.0045269847905728966
aaa(lp1247
I231
a(lp1248
Vscarf_tail_01
p1249
aF0.0045021385885775089
aa(lp1250
Vscarf_tail_02
p1251
aF0.99473488330841064
aaa(lp1252
I232
a(lp1253
Vscarf_tail_01
p1254
aF0.002003637608140707
aa(lp1255
Vscarf_tail_02
p1256
aF0.98605829477310181
aa(lp1257
Vscarf_tail_03
p1258
aF0.011938067618757486
aaa(lp1259
I233
a(lp1260
Vspine_03
p1261
aF0.18544387817382812
aa(lp1262
Vscarf_tail_01
p1263
aF0.78038784832460806
aa(lp1264
Vscarf_tail_03
p1265
aF0.013826873153448105
aa(lp1266
Vscarf_tail_04
p1267
aF0.0077378461137413979
aa(lp1268
Vscarf_tail_05
p1269
aF0.0039213183335959911
aa(lp1270
Vscarf_tail_06
p1271
aF0.008093684446066618
aaa(lp1272
I234
a(lp1273
Vspine_03
p1274
aF0.20433109998703003
aa(lp1275
Vscarf_tail_01
p1276
aF0.76778339548036456
aa(lp1277
Vscarf_tail_02
p1278
aF0.001120526809245348
aa(lp1279
Vscarf_tail_03
p1280
aF0.012921242043375969
aa(lp1281
Vscarf_tail_04
p1282
aF0.0069965440779924393
aa(lp1283
Vscarf_tail_05
p1284
aF0.0032792154233902693
aa(lp1285
Vscarf_tail_06
p1286
aF0.0035679761786013842
aaa(lp1287
I235
a(lp1288
Vspine_03
p1289
aF0.042417515069246292
aa(lp1290
Vscarf_tail_01
p1291
aF0.93867699429392815
aa(lp1292
Vscarf_tail_03
p1293
aF0.012631136924028397
aa(lp1294
Vscarf_tail_04
p1295
aF0.006125633604824543
aaa(lp1296
I236
a(lp1297
Vspine_03
p1298
aF0.17256824672222137
aa(lp1299
Vscarf_tail_01
p1300
aF0.79066121391952038
aa(lp1301
Vscarf_tail_03
p1302
aF0.014387898147106171
aa(lp1303
Vscarf_tail_04
p1304
aF0.0081275403499603271
aa(lp1305
Vscarf_tail_05
p1306
aF0.0046020345762372017
aa(lp1307
Vscarf_tail_06
p1308
aF0.0088255582377314568
aaa(lp1309
I237
a(lp1310
Vscarf_tail_01
p1311
aF0.031777214258909225
aa(lp1312
Vscarf_tail_02
p1313
aF0.96773067023605108
aaa(lp1314
I238
a(lp1315
Vscarf_tail_01
p1316
aF0.028310045599937439
aa(lp1317
Vscarf_tail_02
p1318
aF0.96914014098001644
aa(lp1319
Vscarf_tail_04
p1320
aF0.001187104731798172
aaa(lp1321
I239
a(lp1322
Vscarf_tail_01
p1323
aF0.041443593800067902
aa(lp1324
Vscarf_tail_02
p1325
aF0.9585564061999321
aaa(lp1326
I240
a(lp1327
Vscarf_tail_01
p1328
aF0.0095163118094205856
aa(lp1329
Vscarf_tail_02
p1330
aF0.9903828247988713
aaa(lp1331
I241
a(lp1332
Vscarf_tail_03
p1333
aF0.98553776741027832
aa(lp1334
Vscarf_tail_04
p1335
aF0.014458992850645112
aaa(lp1336
I242
a(lp1337
Vscarf_tail_03
p1338
aF0.9791717529296875
aa(lp1339
Vscarf_tail_04
p1340
aF0.020825212195644816
aaa(lp1341
I243
a(lp1342
Vscarf_tail_03
p1343
aF0.99810218811035156
aa(lp1344
Vscarf_tail_04
p1345
aF0.0018927878839698487
aaa(lp1346
I244
a(lp1347
Vscarf_tail_03
p1348
aF0.99183303117752075
aa(lp1349
Vscarf_tail_04
p1350
aF0.0081580006690273876
aaa(lp1351
I245
a(lp1352
Vscarf_tail_03
p1353
aF0.91507917642593384
aa(lp1354
Vscarf_tail_04
p1355
aF0.084918477322968755
aaa(lp1356
I246
a(lp1357
Vscarf_tail_03
p1358
aF0.99902057480020934
aaa(lp1359
I247
a(lp1360
Vscarf_tail_03
p1361
aF0.99921569132129662
aaa(lp1362
I248
a(lp1363
Vscarf_tail_03
p1364
aF0.99769244719846029
aa(lp1365
Vscarf_tail_04
p1366
aF0.0015231771976687014
aaa(lp1367
I249
a(lp1368
Vscarf_tail_03
p1369
aF0.99970835558178806
aaa(lp1370
I250
a(lp1371
Vscarf_tail_01
p1372
aF0.0012411669595167041
aa(lp1373
Vscarf_tail_02
p1374
aF0.99591457843780518
aa(lp1375
Vscarf_tail_03
p1376
aF0.002832063236382965
aaa(lp1377
I251
a(lp1378
Vscarf_tail_01
p1379
aF0.0020170051138848066
aa(lp1380
Vscarf_tail_02
p1381
aF0.99318969249725342
aa(lp1382
Vscarf_tail_03
p1383
aF0.0038871174328960478
aaa(lp1384
I252
a(lp1385
Vscarf_tail_02
p1386
aF0.98995178937911987
aa(lp1387
Vscarf_tail_03
p1388
aF0.0092579238034886657
aaa(lp1389
I253
a(lp1390
Vscarf_tail_01
p1391
aF0.0033759905491024256
aa(lp1392
Vscarf_tail_02
p1393
aF0.99552243947982788
aaa(lp1394
I254
a(lp1395
Vscarf_tail_06
p1396
aF0.99996950087574987
aaa(lp1397
I255
a(lp1398
Vscarf_tail_06
p1399
aF0.99996706644014921
aaa(lp1400
I256
a(lp1401
Vscarf_tail_06
p1402
aF0.99999739134727861
aaa(lp1403
I257
a(lp1404
Vscarf_tail_06
p1405
aF0.99999938111744768
aaa(lp1406
I258
a(lp1407
Vscarf_tail_06
p1408
aF0.99999537802614213
aaa(lp1409
I259
a(lp1410
Vscarf_tail_06
p1411
aF0.99998532010749841
aaa(lp1412
I260
a(lp1413
Vscarf_tail_06
p1414
aF0.99995452968232712
aaa(lp1415
I261
a(lp1416
Vscarf_tail_06
p1417
aF0.99970777802364097
aaa(lp1418
I262
a(lp1419
Vscarf_tail_06
p1420
aF0.9999996239974962
aaa(lp1421
I263
a(lp1422
Vscarf_tail_05
p1423
aF0.99937605857849121
aaa(lp1424
I264
a(lp1425
Vscarf_tail_05
p1426
aF0.99892723560333252
aaa(lp1427
I265
a(lp1428
Vscarf_tail_05
p1429
aF0.99970966577529907
aaa(lp1430
I266
a(lp1431
Vscarf_tail_05
p1432
aF0.99960649013519287
aaa(lp1433
I267
a(lp1434
Vscarf_tail_03
p1435
aF0.037790056318044662
aa(lp1436
Vscarf_tail_04
p1437
aF0.96142658177662477
aaa(lp1438
I268
a(lp1439
Vscarf_tail_03
p1440
aF0.059461820870637894
aa(lp1441
Vscarf_tail_04
p1442
aF0.92920705769211054
aa(lp1443
Vscarf_tail_05
p1444
aF0.0042622610926628113
aa(lp1445
Vscarf_tail_06
p1446
aF0.0070688603445887566
aaa(lp1447
I269
a(lp1448
Vscarf_tail_03
p1449
aF0.020190384238958359
aa(lp1450
Vscarf_tail_04
p1451
aF0.97935106363536306
aaa(lp1452
I270
a(lp1453
Vscarf_tail_01
p1454
aF0.0011446129065006971
aa(lp1455
Vscarf_tail_03
p1456
aF0.14596347510814667
aa(lp1457
Vscarf_tail_04
p1458
aF0.85117477155290544
aaa(lp1459
I271
a(lp1460
Vscarf_tail_06
p1461
aF0.99998542387402267
aaa(lp1462
I272
a(lp1463
Vscarf_tail_06
p1464
aF0.99962402658093197
aaa(lp1465
I273
a(lp1466
Vscarf_tail_05
p1467
aF0.0014814109308645129
aa(lp1468
Vscarf_tail_06
p1469
aF0.99851858906913549
aaa(lp1470
I274
a(lp1471
Vscarf_tail_06
p1472
aF0.99999463290200197
aaa(lp1473
I275
a(lp1474
Vscarf_tail_05
p1475
aF0.99998033046722412
aaa(lp1476
I276
a(lp1477
Vscarf_tail_05
p1478
aF0.99997004319561711
aaa(lp1479
I277
a(lp1480
Vscarf_tail_05
p1481
aF0.99996414561659197
aaa(lp1482
I278
a(lp1483
Vscarf_tail_05
p1484
aF0.99998992681503296
aaa(lp1485
I279
a(lp1486
Vscarf_tail_03
p1487
aF0.0079951630905270576
aa(lp1488
Vscarf_tail_04
p1489
aF0.99166022290592082
aaa(lp1490
I280
a(lp1491
Vscarf_tail_03
p1492
aF0.0016000578179955482
aa(lp1493
Vscarf_tail_04
p1494
aF0.98987200351086813
aa(lp1495
Vscarf_tail_05
p1496
aF0.0021444233134388924
aa(lp1497
Vscarf_tail_06
p1498
aF0.0063828639686107635
aaa(lp1499
I281
a(lp1500
Vscarf_tail_04
p1501
aF0.99969356088525885
aaa(lp1502
I282
a(lp1503
Vscarf_tail_03
p1504
aF0.014555785804986954
aa(lp1505
Vscarf_tail_04
p1506
aF0.98516703097840264
aaa(lp1507
I283
a(lp1508
Vscarf_tail_03
p1509
aF0.049667898565530777
aa(lp1510
Vscarf_tail_04
p1511
aF0.95033210143446922
aaa(lp1512
I284
a(lp1513
Vscarf_tail_04
p1514
aF0.99972846576434904
aaa(lp1515
I285
a(lp1516
Vscarf_tail_04
p1517
aF0.99932237146185798
aaa(lp1518
I286
a(lp1519
Vscarf_tail_04
p1520
aF0.9998873866456961
aaa(lp1521
I287
a(lp1522
Vscarf_tail_04
p1523
aF0.99974985853868681
aaa(lp1524
I288
a(lp1525
Vscarf_tail_04
p1526
aF0.029879171401262283
aa(lp1527
Vscarf_tail_05
p1528
aF0.96475382009521127
aa(lp1529
Vscarf_tail_06
p1530
aF0.0053670085035264492
aaa(lp1531
I289
a(lp1532
Vscarf_tail_04
p1533
aF0.049261942505836487
aa(lp1534
Vscarf_tail_05
p1535
aF0.94995501058292575
aaa(lp1536
I290
a(lp1537
Vscarf_tail_04
p1538
aF0.0080136517062783241
aa(lp1539
Vscarf_tail_05
p1540
aF0.99198634829372168
aaa(lp1541
I291
a(lp1542
Vscarf_tail_05
p1543
aF0.99819640274108679
aa(lp1544
Vscarf_tail_06
p1545
aF0.0017714431742206216
aaa(lp1546
I292
a(lp1547
Vspine_03
p1548
aF0.76653134822845459
aa(lp1549
Vscarf_tail_01
p1550
aF0.23346865177154541
aaa(lp1551
I293
a(lp1552
Vspine_03
p1553
aF0.76119327545166016
aa(lp1554
Vscarf_tail_01
p1555
aF0.23880672454833984
aaa(lp1556
I294
a(lp1557
Vspine_03
p1558
aF0.45057070255279541
aa(lp1559
Vscarf_tail_01
p1560
aF0.54934814327134518
aaa(lp1561
I295
a(lp1562
Vspine_03
p1563
aF0.77497339248657227
aa(lp1564
Vscarf_tail_01
p1565
aF0.22502660751342771
aaa(lp1566
I296
a(lp1567
Vspine_03
p1568
aF0.94520962238311768
aa(lp1569
Vscarf_tail_01
p1570
aF0.054790377616882324
aaa(lp1571
I297
a(lp1572
Vspine_03
p1573
aF0.16789837181568146
aa(lp1574
Vscarf_tail_01
p1575
aF0.7949715431605
aa(lp1576
Vscarf_tail_03
p1577
aF0.015113048255443573
aa(lp1578
Vscarf_tail_04
p1579
aF0.0077928071841597557
aa(lp1580
Vscarf_tail_05
p1581
aF0.0049651004374027252
aa(lp1582
Vscarf_tail_06
p1583
aF0.0088318744674324989
aaa(lp1584
I298
a(lp1585
Vspine_03
p1586
aF0.16204868257045746
aa(lp1587
Vscarf_tail_01
p1588
aF0.79865818156395108
aa(lp1589
Vscarf_tail_02
p1590
aF0.0013050095876678824
aa(lp1591
Vscarf_tail_03
p1592
aF0.014504394493997097
aa(lp1593
Vscarf_tail_04
p1594
aF0.0080521414056420326
aa(lp1595
Vscarf_tail_05
p1596
aF0.005109790712594986
aa(lp1597
Vscarf_tail_06
p1598
aF0.010321799665689468
aaa(lp1599
I299
a(lp1600
Vspine_03
p1601
aF0.03417503833770752
aa(lp1602
Vscarf_tail_01
p1603
aF0.9508480466902256
aa(lp1604
Vscarf_tail_02
p1605
aF0.0020105578005313873
aa(lp1606
Vscarf_tail_03
p1607
aF0.012882288960099686
aaa(lp1608
I300
a(lp1609
Vspine_03
p1610
aF0.17936879396438599
aa(lp1611
Vscarf_tail_01
p1612
aF0.78572657331824303
aa(lp1613
Vscarf_tail_03
p1614
aF0.014404356479644775
aa(lp1615
Vscarf_tail_04
p1616
aF0.0072607174515724182
aa(lp1617
Vscarf_tail_05
p1618
aF0.004499983973801136
aa(lp1619
Vscarf_tail_06
p1620
aF0.0087395748123526573
aaa(lp1621
I301
a(lp1622
Vscarf_tail_01
p1623
aF0.042115315794944763
aa(lp1624
Vscarf_tail_02
p1625
aF0.95650614507030696
aa(lp1626
Vscarf_tail_04
p1627
aF0.001293870504014194
aaa(lp1628
I302
a(lp1629
Vscarf_tail_01
p1630
aF0.054691161960363388
aa(lp1631
Vscarf_tail_02
p1632
aF0.93642977671697736
aa(lp1633
Vscarf_tail_03
p1634
aF0.0039236810989677906
aa(lp1635
Vscarf_tail_04
p1636
aF0.0017777641769498587
aa(lp1637
Vscarf_tail_06
p1638
aF0.0022070911945775151
aaa(lp1639
I303
a(lp1640
Vscarf_tail_01
p1641
aF0.034192737191915512
aa(lp1642
Vscarf_tail_02
p1643
aF0.96512722074135127
aaa(lp1644
I304
a(lp1645
Vscarf_tail_01
p1646
aF0.012816238217055798
aa(lp1647
Vscarf_tail_02
p1648
aF0.98553645354695618
aa(lp1649
Vscarf_tail_03
p1650
aF0.0016473082359880209
aaa(lp1651
I305
a(lp1652
Vscarf_tail_03
p1653
aF0.99958576815705369
aaa(lp1654
I306
a(lp1655
Vscarf_tail_03
p1656
aF0.99799943530524615
aa(lp1657
Vscarf_tail_04
p1658
aF0.0018148033414036036
aaa(lp1659
I307
a(lp1660
Vscarf_tail_03
p1661
aF0.99826225609012909
aa(lp1662
Vscarf_tail_04
p1663
aF0.0017296082805842161
aaa(lp1664
I308
a(lp1665
Vscarf_tail_03
p1666
aF0.97620794631075114
aa(lp1667
Vscarf_tail_04
p1668
aF0.023458775132894516
aaa(lp1669
I309
a(lp1670
Vspine_03
p1671
aF0.0014419133076444268
aa(lp1672
Vscarf_tail_01
p1673
aF0.84356778860092163
aa(lp1674
Vscarf_tail_02
p1675
aF0.15499029809143394
aaa(lp1676
I310
a(lp1677
Vspine_03
p1678
aF0.0012423922307789326
aa(lp1679
Vscarf_tail_01
p1680
aF0.82789140939712524
aa(lp1681
Vscarf_tail_02
p1682
aF0.17086619837209582
aaa(lp1683
I311
a(lp1684
Vscarf_tail_01
p1685
aF0.95092880725860596
aa(lp1686
Vscarf_tail_02
p1687
aF0.048244527657516301
aaa(lp1688
I312
a(lp1689
Vspine_03
p1690
aF0.0010384274646639824
aa(lp1691
Vscarf_tail_01
p1692
aF0.87022143602371216
aa(lp1693
Vscarf_tail_02
p1694
aF0.12874013651162386
aaa(lp1695
I313
a(lp1696
Vscarf_tail_01
p1697
aF0.89191174507141113
aa(lp1698
Vscarf_tail_02
p1699
aF0.10763222174136899
aaa(lp1700
I314
a(lp1701
Vscarf_tail_01
p1702
aF0.96916205805609934
aa(lp1703
Vscarf_tail_02
p1704
aF0.030550053343176842
aaa(lp1705
I315
a(lp1706
Vscarf_tail_01
p1707
aF0.89310544729232788
aa(lp1708
Vscarf_tail_02
p1709
aF0.10668597908806988
aaa(lp1710
I316
a(lp1711
Vscarf_tail_01
p1712
aF0.69653826951980591
aa(lp1713
Vscarf_tail_02
p1714
aF0.30318407568847761
aaa(lp1715
I317
a(lp1716
Vscarf_tail_01
p1717
aF0.42127189040184021
aa(lp1718
Vscarf_tail_02
p1719
aF0.57831175189494388
aaa(lp1720
I318
a(lp1721
Vscarf_tail_01
p1722
aF0.44811254739761353
aa(lp1723
Vscarf_tail_02
p1724
aF0.55181728727620794
aaa(lp1725
I319
a(lp1726
Vscarf_tail_01
p1727
aF0.18411363661289215
aa(lp1728
Vscarf_tail_02
p1729
aF0.81338617004803382
aa(lp1730
Vscarf_tail_04
p1731
aF0.0013773039681836963
aaa(lp1732
I320
a(lp1733
Vscarf_tail_05
p1734
aF0.34706488251686096
aa(lp1735
Vscarf_tail_06
p1736
aF0.65284697785455137
aaa(lp1737
I321
a(lp1738
Vscarf_tail_05
p1739
aF0.33728086948394775
aa(lp1740
Vscarf_tail_06
p1741
aF0.66199652555951616
aaa(lp1742
I322
a(lp1743
Vscarf_tail_05
p1744
aF0.096785560250282288
aa(lp1745
Vscarf_tail_06
p1746
aF0.90321443974971771
aaa(lp1747
I323
a(lp1748
Vscarf_tail_05
p1749
aF0.36735004186630249
aa(lp1750
Vscarf_tail_06
p1751
aF0.6326182710872672
aaa(lp1752
I324
a(lp1753
Vscarf_tail_05
p1754
aF0.39271318912506104
aa(lp1755
Vscarf_tail_06
p1756
aF0.60725678402741323
aaa(lp1757
I325
a(lp1758
Vscarf_tail_05
p1759
aF0.13210812211036682
aa(lp1760
Vscarf_tail_06
p1761
aF0.86788953774339461
aaa(lp1762
I326
a(lp1763
Vscarf_tail_05
p1764
aF0.41228699684143066
aa(lp1765
Vscarf_tail_06
p1766
aF0.58765987028765876
aaa(lp1767
I327
a(lp1768
Vscarf_tail_05
p1769
aF0.72155773639678955
aa(lp1770
Vscarf_tail_06
p1771
aF0.27841061372419063
aaa(lp1772
I328
a(lp1773
Vscarf_tail_05
p1774
aF0.9304535984992981
aa(lp1775
Vscarf_tail_06
p1776
aF0.069428604918698511
aaa(lp1777
I329
a(lp1778
Vscarf_tail_05
p1779
aF0.9206383228302002
aa(lp1780
Vscarf_tail_06
p1781
aF0.079336653716381988
aaa(lp1782
I330
a(lp1783
Vscarf_tail_05
p1784
aF0.99341994524002075
aa(lp1785
Vscarf_tail_06
p1786
aF0.0064656844812702738
aaa(lp1787
I331
a(lp1788
Vscarf_tail_02
p1789
aF0.32364818453788757
aa(lp1790
Vscarf_tail_03
p1791
aF0.67584856057146681
aaa(lp1792
I332
a(lp1793
Vscarf_tail_02
p1794
aF0.34754955768585205
aa(lp1795
Vscarf_tail_03
p1796
aF0.65146408366854303
aaa(lp1797
I333
a(lp1798
Vscarf_tail_02
p1799
aF0.11020515114068985
aa(lp1800
Vscarf_tail_03
p1801
aF0.88895419464603265
aaa(lp1802
I334
a(lp1803
Vscarf_tail_02
p1804
aF0.26160761713981628
aa(lp1805
Vscarf_tail_03
p1806
aF0.73794328948133625
aaa(lp1807
I335
a(lp1808
Vscarf_tail_02
p1809
aF0.20103415846824646
aa(lp1810
Vscarf_tail_03
p1811
aF0.79878346827172209
aaa(lp1812
I336
a(lp1813
Vscarf_tail_02
p1814
aF0.049675565212965012
aa(lp1815
Vscarf_tail_03
p1816
aF0.95032443478703499
aaa(lp1817
I337
a(lp1818
Vscarf_tail_02
p1819
aF0.1568615734577179
aa(lp1820
Vscarf_tail_03
p1821
aF0.84085484442766756
aa(lp1822
Vscarf_tail_06
p1823
aF0.00107736220525112
aaa(lp1824
I338
a(lp1825
Vscarf_tail_02
p1826
aF0.45610660314559937
aa(lp1827
Vscarf_tail_03
p1828
aF0.54299260246625636
aaa(lp1829
I339
a(lp1830
Vscarf_tail_02
p1831
aF0.74259048700332642
aa(lp1832
Vscarf_tail_03
p1833
aF0.25654665174442925
aaa(lp1834
I340
a(lp1835
Vscarf_tail_02
p1836
aF0.69863641262054443
aa(lp1837
Vscarf_tail_03
p1838
aF0.30038541161593457
aaa(lp1839
I341
a(lp1840
Vscarf_tail_02
p1841
aF0.91431128978729248
aa(lp1842
Vscarf_tail_03
p1843
aF0.085143396114290226
aaa(lp1844
I342
a(lp1845
Vscarf_tail_05
p1846
aF0.40942555665969849
aa(lp1847
Vscarf_tail_06
p1848
aF0.59051855088063721
aaa(lp1849
I343
a(lp1850
Vscarf_tail_05
p1851
aF0.43757447600364685
aa(lp1852
Vscarf_tail_06
p1853
aF0.56232265464495867
aaa(lp1854
I344
a(lp1855
Vscarf_tail_05
p1856
aF0.14202718436717987
aa(lp1857
Vscarf_tail_06
p1858
aF0.85797281563282013
aaa(lp1859
I345
a(lp1860
Vscarf_tail_05
p1861
aF0.36834132671356201
aa(lp1862
Vscarf_tail_06
p1863
aF0.63161335181443634
aaa(lp1864
I346
a(lp1865
Vscarf_tail_05
p1866
aF0.34467187523841858
aa(lp1867
Vscarf_tail_06
p1868
aF0.65512445480543924
aaa(lp1869
I347
a(lp1870
Vscarf_tail_05
p1871
aF0.094449162483215332
aa(lp1872
Vscarf_tail_06
p1873
aF0.90554984586799492
aaa(lp1874
I348
a(lp1875
Vscarf_tail_05
p1876
aF0.69440352916717529
aa(lp1877
Vscarf_tail_06
p1878
aF0.30555520105554024
aaa(lp1879
I349
a(lp1880
Vscarf_tail_05
p1881
aF0.92330551147460938
aa(lp1882
Vscarf_tail_06
p1883
aF0.076626761507483154
aaa(lp1884
I350
a(lp1885
Vscarf_tail_05
p1886
aF0.99216777086257935
aa(lp1887
Vscarf_tail_06
p1888
aF0.007789992137986701
aaa(lp1889
I351
a(lp1890
Vscarf_tail_04
p1891
aF0.28919598460197449
aa(lp1892
Vscarf_tail_05
p1893
aF0.71080401539802551
aaa(lp1894
I352
a(lp1895
Vscarf_tail_04
p1896
aF0.062173705548048019
aa(lp1897
Vscarf_tail_05
p1898
aF0.93710488505894318
aaa(lp1899
I353
a(lp1900
Vscarf_tail_04
p1901
aF0.24869222939014435
aa(lp1902
Vscarf_tail_05
p1903
aF0.73453057371079922
aa(lp1904
Vscarf_tail_06
p1905
aF0.016777196899056435
aaa(lp1906
I354
a(lp1907
Vscarf_tail_04
p1908
aF0.60867816209793091
aa(lp1909
Vscarf_tail_05
p1910
aF0.39130161056527868
aaa(lp1911
I355
a(lp1912
Vscarf_tail_04
p1913
aF0.88432884216308594
aa(lp1914
Vscarf_tail_05
p1915
aF0.11566161635710158
aaa(lp1916
I356
a(lp1917
Vscarf_tail_04
p1918
aF0.84868544340133667
aa(lp1919
Vscarf_tail_05
p1920
aF0.15129806435243776
aaa(lp1921
I357
a(lp1922
Vscarf_tail_04
p1923
aF0.97414535284042358
aa(lp1924
Vscarf_tail_05
p1925
aF0.025851738845176442
aaa(lp1926
I358
a(lp1927
Vscarf_tail_04
p1928
aF0.90210753679275513
aa(lp1929
Vscarf_tail_05
p1930
aF0.097870694709854433
aaa(lp1931
I359
a(lp1932
Vscarf_tail_04
p1933
aF0.93185746669769287
aa(lp1934
Vscarf_tail_05
p1935
aF0.068093475860223407
aaa(lp1936
I360
a(lp1937
Vscarf_tail_04
p1938
aF0.99178415536880493
aa(lp1939
Vscarf_tail_05
p1940
aF0.0081180434572161175
aaa(lp1941
I361
a(lp1942
Vscarf_tail_04
p1943
aF0.92757314443588257
aa(lp1944
Vscarf_tail_05
p1945
aF0.072301779888221063
aaa(lp1946
I362
a(lp1947
Vscarf_tail_04
p1948
aF0.9352068305015564
aa(lp1949
Vscarf_tail_05
p1950
aF0.064734809049696196
aaa(lp1951
I363
a(lp1952
Vscarf_tail_04
p1953
aF0.93275350332260132
aa(lp1954
Vscarf_tail_05
p1955
aF0.067143133986974135
aaa(lp1956
I364
a(lp1957
Vscarf_tail_04
p1958
aF0.99186736345291138
aa(lp1959
Vscarf_tail_05
p1960
aF0.0080744345432322007
aaa(lp1961
I365
a(lp1962
Vscarf_tail_04
p1963
aF0.90210258960723877
aa(lp1964
Vscarf_tail_05
p1965
aF0.097876848950420481
aaa(lp1966
I366
a(lp1967
Vscarf_tail_04
p1968
aF0.8843192458152771
aa(lp1969
Vscarf_tail_05
p1970
aF0.11566426116405638
aaa(lp1971
I367
a(lp1972
Vscarf_tail_04
p1973
aF0.97415536642074585
aa(lp1974
Vscarf_tail_05
p1975
aF0.025838808207936381
aaa(lp1976
I368
a(lp1977
Vscarf_tail_04
p1978
aF0.60866284370422363
aa(lp1979
Vscarf_tail_05
p1980
aF0.39128056019217183
aaa(lp1981
I369
a(lp1982
Vscarf_tail_04
p1983
aF0.29006034135818481
aa(lp1984
Vscarf_tail_05
p1985
aF0.70992832417050522
aaa(lp1986
I370
a(lp1987
Vscarf_tail_04
p1988
aF0.062175177037715912
aa(lp1989
Vscarf_tail_05
p1990
aF0.93745951462187804
aaa(lp1991
I371
a(lp1992
Vscarf_tail_01
p1993
aF0.86201000213623047
aa(lp1994
Vscarf_tail_02
p1995
aF0.137328636192251
aaa(lp1996
I372
a(lp1997
Vscarf_tail_01
p1998
aF0.86175763607025146
aa(lp1999
Vscarf_tail_02
p2000
aF0.13774610799737275
aaa(lp2001
I373
a(lp2002
Vscarf_tail_01
p2003
aF0.95612478256225586
aa(lp2004
Vscarf_tail_02
p2005
aF0.043549523339606822
aaa(lp2006
I374
a(lp2007
Vscarf_tail_01
p2008
aF0.84472447633743286
aa(lp2009
Vscarf_tail_02
p2010
aF0.15459439245751128
aaa(lp2011
I375
a(lp2012
Vscarf_tail_01
p2013
aF0.82952070236206055
aa(lp2014
Vscarf_tail_02
p2015
aF0.16951277235057205
aaa(lp2016
I376
a(lp2017
Vscarf_tail_01
p2018
aF0.94537121057510376
aa(lp2019
Vscarf_tail_02
p2020
aF0.054111964826006442
aaa(lp2021
I377
a(lp2022
Vscarf_tail_01
p2023
aF0.59465122222900391
aa(lp2024
Vscarf_tail_02
p2025
aF0.40483428497100249
aaa(lp2026
I378
a(lp2027
Vscarf_tail_01
p2028
aF0.31514650583267212
aa(lp2029
Vscarf_tail_02
p2030
aF0.68242111087602098
aa(lp2031
Vscarf_tail_03
p2032
aF0.0015726424753665924
aaa(lp2033
I379
a(lp2034
Vscarf_tail_01
p2035
aF0.11436993628740311
aa(lp2036
Vscarf_tail_02
p2037
aF0.8831538609360905
aa(lp2038
Vscarf_tail_03
p2039
aF0.0016191804315894842
aaa(lp2040
I380
a(lp2041
Vscarf_tail_01
p2042
aF0.0011285166256129742
aa(lp2043
Vscarf_tail_02
p2044
aF0.72037053108215332
aa(lp2045
Vscarf_tail_03
p2046
aF0.2784962781320246
aaa(lp2047
I381
a(lp2048
Vscarf_tail_02
p2049
aF0.90553516149520874
aa(lp2050
Vscarf_tail_03
p2051
aF0.093646340324958999
aaa(lp2052
I382
a(lp2053
Vscarf_tail_02
p2054
aF0.43148121237754822
aa(lp2055
Vscarf_tail_03
p2056
aF0.56851878762245178
aaa(lp2057
I383
a(lp2058
Vscarf_tail_02
p2059
aF0.17936497926712036
aa(lp2060
Vscarf_tail_03
p2061
aF0.82049685368838254
aaa(lp2062
I384
a(lp2063
Vscarf_tail_02
p2064
aF0.041681356728076935
aa(lp2065
Vscarf_tail_03
p2066
aF0.95831864327192307
aaa(lp2067
I385
a(lp2068
Vscarf_tail_02
p2069
aF0.23488275706768036
aa(lp2070
Vscarf_tail_03
p2071
aF0.76241192512679845
aa(lp2072
Vscarf_tail_04
p2073
aF0.0011308233952149749
aaa(lp2074
I386
a(lp2075
Vscarf_tail_02
p2076
aF0.29911655187606812
aa(lp2077
Vscarf_tail_03
p2078
aF0.69966438133269548
aa(lp2079
Vscarf_tail_04
p2080
aF0.0012190667912364006
aaa(lp2081
I387
a(lp2082
Vscarf_tail_02
p2083
aF0.10337457805871964
aa(lp2084
Vscarf_tail_03
p2085
aF0.89416022700791453
aa(lp2086
Vscarf_tail_04
p2087
aF0.0024419031105935574
aaa(lp2088
I388
a(lp2089
Vspine_03
p2090
aF0.0034156863112002611
aa(lp2091
Vscarf_tail_01
p2092
aF0.0070120692253112793
aa(lp2093
Vscarf_tail_02
p2094
aF0.33700358867645264
aa(lp2095
Vscarf_tail_03
p2096
aF0.64915601070970297
aa(lp2097
Vscarf_tail_04
p2098
aF0.0034126450773328543
aaa(lp2099
I389
a(lp2100
Vspine_03
p2101
aF0.76385140419006348
aa(lp2102
Vscarf_tail_01
p2103
aF0.23614859580993652
aaa(lp2104
I390
a(lp2105
Vspine_03
p2106
aF0.44641512632369995
aa(lp2107
Vscarf_tail_01
p2108
aF0.55358487367630005
aaa(lp2109
I391
a(lp2110
Vspine_03
p2111
aF0.94455373287200928
aa(lp2112
Vscarf_tail_01
p2113
aF0.055446267127990723
aaa(lp2114
I392
a(lp2115
Vspine_03
p2116
aF0.99474996328353882
aa(lp2117
Vscarf_tail_01
p2118
aF0.0052500367164611816
aaa(lp2119
I393
a(lp2120
Vspine_03
p2121
aF0.99445897340774536
aa(lp2122
Vscarf_tail_01
p2123
aF0.0055410265922546387
aaa(lp2124
I394
a(lp2125
Vspine_03
p2126
aF1
aaa(lp2127
I395
a(lp2128
Vspine_03
p2129
aF0.9949687123298645
aa(lp2130
Vscarf_tail_01
p2131
aF0.005031287670135498
aaa(lp2132
I396
a(lp2133
Vspine_03
p2134
aF0.99524992704391479
aa(lp2135
Vscarf_tail_01
p2136
aF0.0047500729560852051
aaa(lp2137
I397
a(lp2138
Vspine_03
p2139
aF1
aaa(lp2140
I398
a(lp2141
Vspine_03
p2142
aF0.99123775959014893
aa(lp2143
Vscarf_tail_01
p2144
aF0.0087622404098510742
aaa(lp2145
I399
a(lp2146
Vscarf_tail_04
p2147
aF0.99932044744491577
aaa(lp2148
I400
a(lp2149
Vscarf_tail_04
p2150
aF0.99891984462738037
aaa(lp2151
I401
a(lp2152
Vscarf_tail_04
p2153
aF0.99980443716049194
aaa(lp2154
I402
a(lp2155
Vscarf_tail_04
p2156
aF0.99992865324020386
aaa(lp2157
I403
a(lp2158
Vscarf_tail_04
p2159
aF0.9940381646156311
aa(lp2160
Vscarf_tail_05
p2161
aF0.005959224531864038
aaa(lp2162
I404
a(lp2163
Vscarf_tail_04
p2164
aF0.99978429079055786
aaa(lp2165
I405
a(lp2166
Vscarf_tail_04
p2167
aF0.99844847922213376
aa(lp2168
Vscarf_tail_05
p2169
aF0.0014915902866050601
aaa(lp2170
I406
a(lp2171
Vscarf_tail_04
p2172
aF0.99722883478898439
aa(lp2173
Vscarf_tail_05
p2174
aF0.0018772212788462639
aaa(lp2175
I407
a(lp2176
Vscarf_tail_05
p2177
aF0.99936758280091453
aaa(lp2178
I408
a(lp2179
Vspine_03
p2180
aF0.0011376196052879095
aa(lp2181
Vscarf_tail_05
p2182
aF0.99732686753122834
aaa(lp2183
I409
a(lp2184
Vscarf_tail_05
p2185
aF0.99968717372394167
aaa(lp2186
I410
a(lp2187
Vscarf_tail_05
p2188
aF0.99987340415145809
aaa(lp2189
I411
a(lp2190
Vscarf_tail_05
p2191
aF0.99998338728619274
aaa(lp2192
I412
a(lp2193
Vscarf_tail_05
p2194
aF0.99998854728012532
aaa(lp2195
I413
a(lp2196
Vscarf_tail_05
p2197
aF0.99998496351870436
aaa(lp2198
I414
a(lp2199
Vscarf_tail_05
p2200
aF0.99938507520430853
aaa(lp2201
I415
a(lp2202
Vscarf_tail_04
p2203
aF0.0079998383298516273
aa(lp2204
Vscarf_tail_05
p2205
aF0.98610948212444782
aa(lp2206
Vscarf_tail_06
p2207
aF0.0058906795457005501
aaa(lp2208
I416
a(lp2209
Vscarf_tail_04
p2210
aF0.0020584284793585539
aa(lp2211
Vscarf_tail_05
p2212
aF0.99548117513768375
aa(lp2213
Vscarf_tail_06
p2214
aF0.0024603963829576969
aaa(lp2215
I417
a(lp2216
Vscarf_tail_06
p2217
aF0.99990901464661874
aaa(lp2218
I418
a(lp2219
Vscarf_tail_06
p2220
aF0.9999918214043646
aaa(lp2221
I419
a(lp2222
Vscarf_tail_06
p2223
aF0.99998280751742641
aaa(lp2224
I420
a(lp2225
Vscarf_tail_06
p2226
aF0.99999489941228603
aaa(lp2227
I421
a(lp2228
Vscarf_tail_06
p2229
aF0.99999165547251323
aaa(lp2230
I422
a(lp2231
Vscarf_tail_06
p2232
aF0.99995490771470941
aaa(lp2233
I423
a(lp2234
Vscarf_tail_06
p2235
aF0.99998938778389856
aaa(lp2236
I424
a(lp2237
Vscarf_tail_06
p2238
aF0.9999788968343637
aaa(lp2239
I425
a(lp2240
Vscarf_tail_06
p2241
aF0.99952555322670378
aaa(lp2242
I426
a(lp2243
Vscarf_tail_06
p2244
aF0.99939825004548766
aaa(lp2245
I427
a(lp2246
Vscarf_tail_02
p2247
aF0.021518779918551445
aa(lp2248
Vscarf_tail_03
p2249
aF0.97537002651733928
aa(lp2250
Vscarf_tail_04
p2251
aF0.0030738022178411484
aaa(lp2252
I428
a(lp2253
Vscarf_tail_02
p2254
aF0.032263901084661484
aa(lp2255
Vscarf_tail_03
p2256
aF0.95027398044421341
aa(lp2257
Vscarf_tail_04
p2258
aF0.0066854208707809448
aa(lp2259
Vscarf_tail_05
p2260
aF0.0032328353263437748
aa(lp2261
Vscarf_tail_06
p2262
aF0.0073870527558028698
aaa(lp2263
I429
a(lp2264
Vscarf_tail_02
p2265
aF0.011970978230237961
aa(lp2266
Vscarf_tail_03
p2267
aF0.98801961362460133
aaa(lp2268
I430
a(lp2269
Vscarf_tail_02
p2270
aF0.0053329695947468281
aa(lp2271
Vscarf_tail_03
p2272
aF0.9943567513267908
aaa(lp2273
I431
a(lp2274
Vscarf_tail_02
p2275
aF0.0016386904753744602
aa(lp2276
Vscarf_tail_03
p2277
aF0.99757976841647178
aaa(lp2278
I432
a(lp2279
Vscarf_tail_03
p2280
aF0.99965235341005609
aaa(lp2281
I433
a(lp2282
Vscarf_tail_03
p2283
aF0.99980068562763336
aaa(lp2284
I434
a(lp2285
Vscarf_tail_03
p2286
aF0.99964923328661826
aaa(lp2287
I435
a(lp2288
Vscarf_tail_01
p2289
aF0.0073364921845495701
aa(lp2290
Vscarf_tail_02
p2291
aF0.9924579252692638
aaa(lp2292
I436
a(lp2293
Vscarf_tail_01
p2294
aF0.0065592615865170956
aa(lp2295
Vscarf_tail_02
p2296
aF0.99263530969619751
aaa(lp2297
I437
a(lp2298
Vscarf_tail_01
p2299
aF0.0098135508596897125
aa(lp2300
Vscarf_tail_02
p2301
aF0.98972153663635254
aaa(lp2302
I438
a(lp2303
Vscarf_tail_01
p2304
aF0.0082607883960008621
aa(lp2305
Vscarf_tail_02
p2306
aF0.99173227670917186
aaa(lp2307
I439
a(lp2308
Vscarf_tail_01
p2309
aF0.0080770077183842659
aa(lp2310
Vscarf_tail_02
p2311
aF0.99191904013332532
aaa(lp2312
I440
a(lp2313
Vscarf_tail_01
p2314
aF0.011895810253918171
aa(lp2315
Vscarf_tail_02
p2316
aF0.98809809590238729
aaa(lp2317
I441
a(lp2318
Vscarf_tail_01
p2319
aF0.0065653012134134769
aa(lp2320
Vscarf_tail_02
p2321
aF0.99342995992992655
aaa(lp2322
I442
a(lp2323
Vscarf_tail_01
p2324
aF0.0040392419323325157
aa(lp2325
Vscarf_tail_02
p2326
aF0.9937899112701416
aa(lp2327
Vscarf_tail_03
p2328
aF0.0021708467975258827
aaa(lp2329
I443
a(lp2330
Vscarf_tail_01
p2331
aF0.0015766625292599201
aa(lp2332
Vscarf_tail_02
p2333
aF0.98023784160614014
aa(lp2334
Vscarf_tail_03
p2335
aF0.018185117153194597
aaa(lp2336
I444
a(lp2337
Vscarf_tail_01
p2338
aF0.001088947057723999
aa(lp2339
Vscarf_tail_02
p2340
aF0.97702497243881226
aa(lp2341
Vscarf_tail_03
p2342
aF0.021886080503463745
aaa(lp2343
I445
a(lp2344
Vspine_03
p2345
aF0.0041668950580060482
aa(lp2346
Vscarf_tail_01
p2347
aF0.98623975506052375
aa(lp2348
Vscarf_tail_02
p2349
aF0.0095933498814702034
aaa(lp2350
I446
a(lp2351
Vspine_03
p2352
aF0.008082609623670578
aa(lp2353
Vscarf_tail_01
p2354
aF0.98363414127379656
aa(lp2355
Vscarf_tail_02
p2356
aF0.0082832491025328636
aaa(lp2357
I447
a(lp2358
Vspine_03
p2359
aF0.0034710338804870844
aa(lp2360
Vscarf_tail_01
p2361
aF0.9848099413793534
aa(lp2362
Vscarf_tail_02
p2363
aF0.011719024740159512
aaa(lp2364
I448
a(lp2365
Vspine_03
p2366
aF0.0031263155397027731
aa(lp2367
Vscarf_tail_01
p2368
aF0.98220583260990679
aa(lp2369
Vscarf_tail_02
p2370
aF0.014667851850390434
aaa(lp2371
I449
a(lp2372
Vspine_03
p2373
aF0.0026879457291215658
aa(lp2374
Vscarf_tail_01
p2375
aF0.97886443347670138
aa(lp2376
Vscarf_tail_02
p2377
aF0.018447620794177055
aaa(lp2378
I450
a(lp2379
Vspine_03
p2380
aF0.03330288827419281
aa(lp2381
Vscarf_tail_01
p2382
aF0.95241267699748278
aa(lp2383
Vscarf_tail_02
p2384
aF0.001239175908267498
aa(lp2385
Vscarf_tail_03
p2386
aF0.012905547278933227
aaa(lp2387
I451
a(lp2388
Vspine_03
p2389
aF0.16492585837841034
aa(lp2390
Vscarf_tail_01
p2391
aF0.79720198852010071
aa(lp2392
Vscarf_tail_02
p2393
aF0.0010731171350926161
aa(lp2394
Vscarf_tail_03
p2395
aF0.014536201022565365
aa(lp2396
Vscarf_tail_04
p2397
aF0.0081946374848484993
aa(lp2398
Vscarf_tail_05
p2399
aF0.0050173248164355755
aa(lp2400
Vscarf_tail_06
p2401
aF0.0090508726425468922
aaa(lp2402
I452
a(lp2403
Vscarf_tail_01
p2404
aF0.05568179115653038
aa(lp2405
Vscarf_tail_02
p2406
aF0.94335199787747115
aaa(lp2407
I453
a(lp2408
Vscarf_tail_01
p2409
aF0.072642385959625244
aa(lp2410
Vscarf_tail_02
p2411
aF0.92095728812273592
aa(lp2412
Vscarf_tail_03
p2413
aF0.0019199127564206719
aa(lp2414
Vscarf_tail_04
p2415
aF0.001675440464168787
aa(lp2416
Vscarf_tail_06
p2417
aF0.001970582758076489
aaa(lp2418
I454
a(lp2419
Vscarf_tail_01
p2420
aF0.0143696628510952
aa(lp2421
Vscarf_tail_02
p2422
aF0.98491496520364308
aaa(lp2423
I455
a(lp2424
Vspine_03
p2425
aF0.0042294887825846672
aa(lp2426
Vscarf_tail_01
p2427
aF0.0081580895930528641
aa(lp2428
Vscarf_tail_02
p2429
aF0.9868112702970393
aaa(lp2430
I456
a(lp2431
Vscarf_tail_01
p2432
aF0.0093754231929779053
aa(lp2433
Vscarf_tail_02
p2434
aF0.98697351827286184
aa(lp2435
Vscarf_tail_03
p2436
aF0.0036510585341602564
aaa(lp2437
I457
a(lp2438
Vspine_03
p2439
aF0.0031159506179392338
aa(lp2440
Vscarf_tail_01
p2441
aF0.0078443614766001701
aa(lp2442
Vscarf_tail_02
p2443
aF0.9890396879054606
aaa(lp2444
I458
a(lp2445
Vspine_03
p2446
aF0.0017798158805817366
aa(lp2447
Vscarf_tail_01
p2448
aF0.0076883621513843536
aa(lp2449
Vscarf_tail_02
p2450
aF0.99025047325994819
aaa(lp2451
I459
a(lp2452
Vscarf_tail_01
p2453
aF0.0084130475297570229
aa(lp2454
Vscarf_tail_02
p2455
aF0.9912057229958009
aaa(lp2456
I460
a(lp2457
Vscarf_tail_01
p2458
aF0.0077973352745175362
aa(lp2459
Vscarf_tail_02
p2460
aF0.99161768377234694
aaa(lp2461
I461
a(lp2462
Vscarf_tail_01
p2463
aF0.010796417482197285
aa(lp2464
Vscarf_tail_02
p2465
aF0.98842348995458451
aaa(lp2466
I462
a(lp2467
Vscarf_tail_03
p2468
aF0.99803632497787476
aa(lp2469
Vscarf_tail_04
p2470
aF0.0019353319112269673
aaa(lp2471
I463
a(lp2472
Vscarf_tail_03
p2473
aF0.99956164795725044
aaa(lp2474
I464
a(lp2475
Vscarf_tail_03
p2476
aF0.99746596813201904
aa(lp2477
Vscarf_tail_04
p2478
aF0.0023801359848221182
aaa(lp2479
I465
a(lp2480
Vscarf_tail_03
p2481
aF0.97080540657043457
aa(lp2482
Vscarf_tail_04
p2483
aF0.028931635759136043
aaa(lp2484
I466
a(lp2485
Vscarf_tail_03
p2486
aF0.86751413345336914
aa(lp2487
Vscarf_tail_04
p2488
aF0.131726777064614
aaa(lp2489
I467
a(lp2490
Vscarf_tail_02
p2491
aF0.0015138536691665649
aa(lp2492
Vscarf_tail_03
p2493
aF0.88298147916793823
aa(lp2494
Vscarf_tail_04
p2495
aF0.11490761180175468
aaa(lp2496
I468
a(lp2497
Vscarf_tail_02
p2498
aF0.0019437621813267469
aa(lp2499
Vscarf_tail_03
p2500
aF0.64190393686294556
aa(lp2501
Vscarf_tail_04
p2502
aF0.35450370446778834
aaa(lp2503
I469
a(lp2504
Vscarf_tail_03
p2505
aF0.80662977695465088
aa(lp2506
Vscarf_tail_04
p2507
aF0.19305456700525314
aaa(lp2508
I470
a(lp2509
Vscarf_tail_03
p2510
aF0.74536198377609253
aa(lp2511
Vscarf_tail_04
p2512
aF0.25463186420964434
aaa(lp2513
I471
a(lp2514
Vscarf_tail_03
p2515
aF0.46196475625038147
aa(lp2516
Vscarf_tail_04
p2517
aF0.53760325411597398
aaa(lp2518
I472
a(lp2519
Vscarf_tail_03
p2520
aF0.70707333087921143
aa(lp2521
Vscarf_tail_04
p2522
aF0.29291405292769923
aaa(lp2523
I473
a(lp2524
Vscarf_tail_02
p2525
aF0.0080267796292901039
aa(lp2526
Vscarf_tail_03
p2527
aF0.99181600904557854
aaa(lp2528
I474
a(lp2529
Vscarf_tail_02
p2530
aF0.014403761364519596
aa(lp2531
Vscarf_tail_03
p2532
aF0.9855962386354804
aaa(lp2533
I475
a(lp2534
Vscarf_tail_02
p2535
aF0.023623267188668251
aa(lp2536
Vscarf_tail_03
p2537
aF0.97476635966449976
aa(lp2538
Vscarf_tail_04
p2539
aF0.0016103731468319895
aaa(lp2540
I476
a(lp2541
Vscarf_tail_02
p2542
aF0.031066557392477989
aa(lp2543
Vscarf_tail_03
p2544
aF0.9549485780021314
aa(lp2545
Vscarf_tail_04
p2546
aF0.0047226818278431892
aa(lp2547
Vscarf_tail_05
p2548
aF0.0021829477045685053
aa(lp2549
Vscarf_tail_06
p2550
aF0.0070738072972744703
aaa(lp2551
I477
a(lp2552
Vscarf_tail_02
p2553
aF0.0016119594220072031
aa(lp2554
Vscarf_tail_03
p2555
aF0.996911252848804
aa(lp2556
Vscarf_tail_04
p2557
aF0.0014767877291887996
aaa(lp2558
I478
a(lp2559
Vscarf_tail_03
p2560
aF0.99954831634204311
aaa(lp2561
I479
a(lp2562
Vscarf_tail_03
p2563
aF0.99682568488697143
aa(lp2564
Vscarf_tail_04
p2565
aF0.0031338795088231564
aaa(lp2566
I480
a(lp2567
Vscarf_tail_02
p2568
aF0.9837031364440918
aa(lp2569
Vscarf_tail_03
p2570
aF0.015614305434382914
aaa(lp2571
I481
a(lp2572
Vscarf_tail_01
p2573
aF0.0021839290857315063
aa(lp2574
Vscarf_tail_02
p2575
aF0.99473124742507935
aa(lp2576
Vscarf_tail_03
p2577
aF0.0030848234891891479
aaa(lp2578
I482
a(lp2579
Vscarf_tail_01
p2580
aF0.0048670945689082146
aa(lp2581
Vscarf_tail_02
p2582
aF0.99399203062057495
aa(lp2583
Vscarf_tail_03
p2584
aF0.0011376221598311531
aaa(lp2585
I483
a(lp2586
Vscarf_tail_01
p2587
aF0.00492091104388237
aa(lp2588
Vscarf_tail_02
p2589
aF0.9937865138053894
aa(lp2590
Vscarf_tail_03
p2591
aF0.0012925751507282257
aaa(lp2592
I484
a(lp2593
Vspine_03
p2594
aF0.0021558748558163643
aa(lp2595
Vscarf_tail_01
p2596
aF0.0057623777538537979
aa(lp2597
Vscarf_tail_02
p2598
aF0.99208174739032984
aaa(lp2599
I485
a(lp2600
Vspine_03
p2601
aF0.0035276813432574272
aa(lp2602
Vscarf_tail_01
p2603
aF0.0066958088427782059
aa(lp2604
Vscarf_tail_02
p2605
aF0.98977650981396437
aaa(lp2606
I486
a(lp2607
Vscarf_tail_06
p2608
aF0.99997093546153337
aaa(lp2609
I487
a(lp2610
Vscarf_tail_06
p2611
aF0.99999929164113155
aaa(lp2612
I488
a(lp2613
Vscarf_tail_06
p2614
aF0.99989044721223763
aaa(lp2615
I489
a(lp2616
Vscarf_tail_06
p2617
aF0.99994616206095088
aaa(lp2618
I490
a(lp2619
Vscarf_tail_06
p2620
aF0.9998887859765091
aaa(lp2621
I491
a(lp2622
Vscarf_tail_06
p2623
aF0.99812086715246551
aaa(lp2624
I492
a(lp2625
Vscarf_tail_06
p2626
aF0.99990283288934734
aaa(lp2627
I493
a(lp2628
Vscarf_tail_06
p2629
aF0.99996622258004209
aaa(lp2630
I494
a(lp2631
Vscarf_tail_06
p2632
aF0.99978685801579559
aaa(lp2633
I495
a(lp2634
Vscarf_tail_06
p2635
aF0.99967154480873432
aaa(lp2636
I496
a(lp2637
Vscarf_tail_05
p2638
aF0.011389676481485367
aa(lp2639
Vscarf_tail_06
p2640
aF0.98861032351851463
aaa(lp2641
I497
a(lp2642
Vscarf_tail_05
p2643
aF0.010118882171809673
aa(lp2644
Vscarf_tail_06
p2645
aF0.98988111782819033
aaa(lp2646
I498
a(lp2647
Vscarf_tail_05
p2648
aF0.016081845387816429
aa(lp2649
Vscarf_tail_06
p2650
aF0.98391815461218357
aaa(lp2651
I499
a(lp2652
Vscarf_tail_05
p2653
aF0.029824776574969292
aa(lp2654
Vscarf_tail_06
p2655
aF0.97017522342503071
aaa(lp2656
I500
a(lp2657
Vscarf_tail_05
p2658
aF0.045564431697130203
aa(lp2659
Vscarf_tail_06
p2660
aF0.95374538869509706
aaa(lp2661
I501
a(lp2662
Vscarf_tail_05
p2663
aF0.0015895951073616743
aa(lp2664
Vscarf_tail_06
p2665
aF0.99839751500257989
aaa(lp2666
I502
a(lp2667
Vscarf_tail_06
p2668
aF0.99998916907588864
aaa(lp2669
I503
a(lp2670
Vscarf_tail_06
p2671
aF0.99990578586402989
aaa(lp2672
I504
a(lp2673
Vscarf_tail_05
p2674
aF0.99993240833282471
aaa(lp2675
I505
a(lp2676
Vscarf_tail_05
p2677
aF0.99996739625930786
aaa(lp2678
I506
a(lp2679
Vscarf_tail_05
p2680
aF0.99998668957107384
aaa(lp2681
I507
a(lp2682
Vscarf_tail_05
p2683
aF0.99999475128657878
aaa(lp2684
I508
a(lp2685
Vscarf_tail_05
p2686
aF0.99991155843889601
aaa(lp2687
I509
a(lp2688
Vscarf_tail_05
p2689
aF0.99975927361788308
aaa(lp2690
I510
a(lp2691
Vscarf_tail_05
p2692
aF0.99951301862165565
aaa(lp2693
I511
a(lp2694
Vscarf_tail_03
p2695
aF0.00799581129103899
aa(lp2696
Vscarf_tail_04
p2697
aF0.99072110990528017
aa(lp2698
Vscarf_tail_05
p2699
aF0.0012830788036808372
aaa(lp2700
I512
a(lp2701
Vscarf_tail_03
p2702
aF0.05299212783575058
aa(lp2703
Vscarf_tail_04
p2704
aF0.94644690619315952
aaa(lp2705
I513
a(lp2706
Vscarf_tail_03
p2707
aF0.20687292516231537
aa(lp2708
Vscarf_tail_04
p2709
aF0.79196847626008093
aaa(lp2710
I514
a(lp2711
Vscarf_tail_03
p2712
aF0.16556087136268616
aa(lp2713
Vscarf_tail_04
p2714
aF0.8340649125748314
aaa(lp2715
I515
a(lp2716
Vscarf_tail_03
p2717
aF0.28094282746315002
aa(lp2718
Vscarf_tail_04
p2719
aF0.71903926797131135
aaa(lp2720
I516
a(lp2721
Vscarf_tail_01
p2722
aF0.0037067634984850883
aa(lp2723
Vscarf_tail_03
p2724
aF0.36356827616691589
aa(lp2725
Vscarf_tail_04
p2726
aF0.63153028045780957
aaa(lp2727
I517
a(lp2728
Vspine_03
p2729
aF0.0024813213385641575
aa(lp2730
Vscarf_tail_01
p2731
aF0.0054583931341767311
aa(lp2732
Vscarf_tail_02
p2733
aF0.0035689477808773518
aa(lp2734
Vscarf_tail_03
p2735
aF0.41131630539894104
aa(lp2736
Vscarf_tail_04
p2737
aF0.57717503234744072
aaa(lp2738
I518
a(lp2739
Vscarf_tail_05
p2740
aF0.025018945336341858
aa(lp2741
Vscarf_tail_06
p2742
aF0.97498067429270918
aaa(lp2743
I519
a(lp2744
Vscarf_tail_05
p2745
aF0.036968648433685303
aa(lp2746
Vscarf_tail_06
p2747
aF0.96288049277791288
aaa(lp2748
I520
a(lp2749
Vscarf_tail_05
p2750
aF0.016918269917368889
aa(lp2751
Vscarf_tail_06
p2752
aF0.98308173008263111
aaa(lp2753
I521
a(lp2754
Vscarf_tail_05
p2755
aF0.012530501931905746
aa(lp2756
Vscarf_tail_06
p2757
aF0.98746949806809425
aaa(lp2758
I522
a(lp2759
Vscarf_tail_06
p2760
aF0.999587489303849
aaa(lp2761
I523
a(lp2762
Vscarf_tail_06
p2763
aF0.99998113059245952
aaa(lp2764
I524
a(lp2765
Vscarf_tail_05
p2766
aF0.9999573826789856
aaa(lp2767
I525
a(lp2768
Vscarf_tail_05
p2769
aF0.99995100498199463
aaa(lp2770
I526
a(lp2771
Vscarf_tail_05
p2772
aF0.99995569813042995
aaa(lp2773
I527
a(lp2774
Vscarf_tail_05
p2775
aF0.99996590614318848
aaa(lp2776
I528
a(lp2777
Vscarf_tail_05
p2778
aF0.9997708797454834
aaa(lp2779
I529
a(lp2780
Vscarf_tail_05
p2781
aF0.99976040963747437
aaa(lp2782
I530
a(lp2783
Vscarf_tail_05
p2784
aF0.99998605251312256
aaa(lp2785
I531
a(lp2786
Vscarf_tail_05
p2787
aF0.99999469518661499
aaa(lp2788
I532
a(lp2789
Vscarf_tail_05
p2790
aF0.99996373306418707
aaa(lp2791
I533
a(lp2792
Vscarf_tail_03
p2793
aF0.023955915123224258
aa(lp2794
Vscarf_tail_04
p2795
aF0.97488620592865938
aa(lp2796
Vscarf_tail_05
p2797
aF0.0010890953708440065
aaa(lp2798
I534
a(lp2799
Vscarf_tail_03
p2800
aF0.0017585363239049911
aa(lp2801
Vscarf_tail_04
p2802
aF0.99654280091635883
aa(lp2803
Vscarf_tail_05
p2804
aF0.0016986627597361803
aaa(lp2805
I535
a(lp2806
Vscarf_tail_03
p2807
aF0.031759209930896759
aa(lp2808
Vscarf_tail_04
p2809
aF0.95114575140178204
aa(lp2810
Vscarf_tail_05
p2811
aF0.008890804834663868
aa(lp2812
Vscarf_tail_06
p2813
aF0.0082042338326573372
aaa(lp2814
I536
a(lp2815
Vscarf_tail_03
p2816
aF0.11095854640007019
aa(lp2817
Vscarf_tail_04
p2818
aF0.88502561628229159
aa(lp2819
Vscarf_tail_05
p2820
aF0.0039887381717562675
aaa(lp2821
I537
a(lp2822
Vscarf_tail_03
p2823
aF0.32404574751853943
aa(lp2824
Vscarf_tail_04
p2825
aF0.67364155384711921
aa(lp2826
Vscarf_tail_05
p2827
aF0.0017216741107404232
aaa(lp2828
I538
a(lp2829
Vspine_03
p2830
aF0.0044481898657977581
aa(lp2831
Vscarf_tail_01
p2832
aF0.0037540618795901537
aa(lp2833
Vscarf_tail_02
p2834
aF0.002882140688598156
aa(lp2835
Vscarf_tail_03
p2836
aF0.34844544529914856
aa(lp2837
Vscarf_tail_04
p2838
aF0.63504243013449013
aa(lp2839
Vscarf_tail_05
p2840
aF0.0054277321323752403
aaa(lp2841
I539
a(lp2842
Vscarf_tail_02
p2843
aF0.0017667852807790041
aa(lp2844
Vscarf_tail_03
p2845
aF0.60694748163223267
aa(lp2846
Vscarf_tail_04
p2847
aF0.39100976081681438
aaa(lp2848
I540
a(lp2849
Vscarf_tail_03
p2850
aF0.26178014278411865
aa(lp2851
Vscarf_tail_04
p2852
aF0.73821985721588135
aaa(lp2853
I541
a(lp2854
Vscarf_tail_03
p2855
aF0.20353566110134125
aa(lp2856
Vscarf_tail_04
p2857
aF0.79618904739420771
aaa(lp2858
I542
a(lp2859
Vscarf_tail_03
p2860
aF0.45864439010620117
aa(lp2861
Vscarf_tail_04
p2862
aF0.54076703762984835
aaa(lp2863
I543
a(lp2864
Vscarf_tail_04
p2865
aF0.99997603893280029
aaa(lp2866
I544
a(lp2867
Vscarf_tail_04
p2868
aF0.9999232292175293
aaa(lp2869
I545
a(lp2870
Vscarf_tail_04
p2871
aF0.99982374906539917
aaa(lp2872
I546
a(lp2873
Vscarf_tail_04
p2874
aF0.99943585478831665
aaa(lp2875
I547
a(lp2876
Vscarf_tail_04
p2877
aF0.99954232724617409
aaa(lp2878
I548
a(lp2879
Vscarf_tail_04
p2880
aF0.99875695738592185
aa(lp2881
Vscarf_tail_05
p2882
aF0.0011567790061235428
aaa(lp2883
I549
a(lp2884
Vscarf_tail_04
p2885
aF0.99578103121893946
aa(lp2886
Vscarf_tail_05
p2887
aF0.0036882611457258463
aaa(lp2888
I550
a(lp2889
Vscarf_tail_04
p2890
aF0.0079995468258857727
aa(lp2891
Vscarf_tail_05
p2892
aF0.99046460628460409
aa(lp2893
Vscarf_tail_06
p2894
aF0.0015302351675927639
aaa(lp2895
I551
a(lp2896
Vscarf_tail_05
p2897
aF0.99898772244341671
aa(lp2898
Vscarf_tail_06
p2899
aF0.0010122775565832853
aaa(lp2900
I552
a(lp2901
Vscarf_tail_05
p2902
aF0.99978244768821867
aaa(lp2903
I553
a(lp2904
Vscarf_tail_05
p2905
aF0.99998249709638287
aaa(lp2906
I554
a(lp2907
Vscarf_tail_05
p2908
aF0.9995308777063201
aaa(lp2909
I555
a(lp2910
Vscarf_tail_05
p2911
aF0.99528082716665267
aa(lp2912
Vscarf_tail_06
p2913
aF0.0045539820566773415
aaa(lp2914
I556
a(lp2915
Vspine_03
p2916
aF0.7816968560218811
aa(lp2917
Vscarf_tail_01
p2918
aF0.2183031439781189
aaa(lp2919
I557
a(lp2920
Vspine_03
p2921
aF0.48094698786735535
aa(lp2922
Vscarf_tail_01
p2923
aF0.51905301213264465
aaa(lp2924
I558
a(lp2925
Vspine_03
p2926
aF0.77327752113342285
aa(lp2927
Vscarf_tail_01
p2928
aF0.22672247886657715
aaa(lp2929
I559
a(lp2930
Vspine_03
p2931
aF0.94875437021255493
aa(lp2932
Vscarf_tail_01
p2933
aF0.051245629787445068
aaa(lp2934
I560
a(lp2935
Vspine_03
p2936
aF0.99565619230270386
aa(lp2937
Vscarf_tail_01
p2938
aF0.0043438076972961426
aaa(lp2939
I561
a(lp2940
Vspine_03
p2941
aF0.99191343784332275
aa(lp2942
Vscarf_tail_01
p2943
aF0.0080865621566772461
aaa(lp2944
I562
a(lp2945
Vspine_03
p2946
aF1
aaa(lp2947
I563
a(lp2948
Vspine_03
p2949
aF0.99515622854232788
aa(lp2950
Vscarf_tail_01
p2951
aF0.0048437714576721191
aaa(lp2952
I564
a(lp2953
Vspine_03
p2954
aF0.99478119611740112
aa(lp2955
Vscarf_tail_01
p2956
aF0.005218803882598877
aaa(lp2957
I565
a(lp2958
Vspine_03
p2959
aF1
aaa(lp2960
I566
a(lp2961
Vspine_03
p2962
aF0.0031066732481122017
aa(lp2963
Vscarf_tail_01
p2964
aF0.97821962367743254
aa(lp2965
Vscarf_tail_02
p2966
aF0.018673703074455261
aaa(lp2967
I567
a(lp2968
Vspine_03
p2969
aF0.0037730298936367035
aa(lp2970
Vscarf_tail_01
p2971
aF0.97792772948741913
aa(lp2972
Vscarf_tail_02
p2973
aF0.018299240618944168
aaa(lp2974
I568
a(lp2975
Vspine_03
p2976
aF0.0049315840005874634
aa(lp2977
Vscarf_tail_01
p2978
aF0.97736793756484985
aa(lp2979
Vscarf_tail_02
p2980
aF0.017700478434562683
aaa(lp2981
I569
a(lp2982
Vspine_03
p2983
aF0.0091539807617664337
aa(lp2984
Vscarf_tail_01
p2985
aF0.97330814972519875
aa(lp2986
Vscarf_tail_02
p2987
aF0.017537869513034821
aaa(lp2988
I570
a(lp2989
Vspine_03
p2990
aF0.046388484537601471
aa(lp2991
Vscarf_tail_01
p2992
aF0.93363114993553609
aa(lp2993
Vscarf_tail_02
p2994
aF0.0018936601700261235
aa(lp2995
Vscarf_tail_03
p2996
aF0.016260268981568515
aa(lp2997
Vscarf_tail_04
p2998
aF0.0018264363752678037
aaa(lp2999
I571
a(lp3000
Vspine_03
p3001
aF0.19586388766765594
aa(lp3002
Vscarf_tail_01
p3003
aF0.77287792786955833
aa(lp3004
Vscarf_tail_03
p3005
aF0.013082887046039104
aa(lp3006
Vscarf_tail_04
p3007
aF0.0064606410451233387
aa(lp3008
Vscarf_tail_05
p3009
aF0.0037758946418762207
aa(lp3010
Vscarf_tail_06
p3011
aF0.007938761729747057
aaa(lp3012
I572
a(lp3013
Vspine_03
p3014
aF0.21591350436210632
aa(lp3015
Vscarf_tail_01
p3016
aF0.75997893884778023
aa(lp3017
Vscarf_tail_03
p3018
aF0.012057431042194366
aa(lp3019
Vscarf_tail_04
p3020
aF0.0056031951680779457
aa(lp3021
Vscarf_tail_05
p3022
aF0.0031024746131151915
aa(lp3023
Vscarf_tail_06
p3024
aF0.0033444559667259455
aaa(lp3025
I573
a(lp3026
Vscarf_tail_01
p3027
aF0.029657371342182159
aa(lp3028
Vscarf_tail_02
p3029
aF0.9700381062557426
aaa(lp3030
I574
a(lp3031
Vscarf_tail_01
p3032
aF0.012322894297540188
aa(lp3033
Vscarf_tail_02
p3034
aF0.98666556598436728
aaa(lp3035
I575
a(lp3036
Vscarf_tail_01
p3037
aF0.012607445009052753
aa(lp3038
Vscarf_tail_02
p3039
aF0.98641274869987683
aaa(lp3040
I576
a(lp3041
Vscarf_tail_01
p3042
aF0.012221965938806534
aa(lp3043
Vscarf_tail_02
p3044
aF0.98629197332957119
aa(lp3045
Vscarf_tail_03
p3046
aF0.0014682523906230927
aaa(lp3047
I577
a(lp3048
Vscarf_tail_01
p3049
aF0.010185123421251774
aa(lp3050
Vscarf_tail_02
p3051
aF0.98678402109362651
aa(lp3052
Vscarf_tail_03
p3053
aF0.0029961403924971819
aaa(lp3054
I578
a(lp3055
Vscarf_tail_01
p3056
aF0.0093109868466854095
aa(lp3057
Vscarf_tail_02
p3058
aF0.98562380229122937
aa(lp3059
Vscarf_tail_03
p3060
aF0.0049895402044057846
aaa(lp3061
I579
a(lp3062
Vscarf_tail_03
p3063
aF0.99159508511473649
aa(lp3064
Vscarf_tail_04
p3065
aF0.0083921952173113823
aaa(lp3066
I580
a(lp3067
Vscarf_tail_03
p3068
aF0.91507023572921753
aa(lp3069
Vscarf_tail_04
p3070
aF0.084921143567044055
aaa(lp3071
I581
a(lp3072
Vscarf_tail_03
p3073
aF0.74534285068511963
aa(lp3074
Vscarf_tail_04
p3075
aF0.25440595973486779
aaa(lp3076
I582
a(lp3077
Vscarf_tail_03
p3078
aF0.80108791589736938
aa(lp3079
Vscarf_tail_04
p3080
aF0.19856377749238163
aaa(lp3081
I583
a(lp3082
Vscarf_tail_03
p3083
aF0.85383564233779907
aa(lp3084
Vscarf_tail_04
p3085
aF0.14517674402304692
aaa(lp3086
I584
a(lp3087
Vscarf_tail_02
p3088
aF0.0015611185226589441
aa(lp3089
Vscarf_tail_03
p3090
aF0.85567188262939453
aa(lp3091
Vscarf_tail_04
p3092
aF0.14276699884794652
aaa.